Archive member included to satisfy reference by file (symbol)

out/libbsp_loko_app.a(radio_board_if.c.obj)
                              CMakeFiles/loko_app.dir/Middlewares/Third_Party/SubGHz_Phy/stm32_radio_driver/radio_driver.c.obj (symbol from plugin) (RBI_Init)
out/libbsp_loko_app.a(bsp.c.obj)
                              CMakeFiles/loko_app.dir/Middlewares/Third_Party/SubGHz_Phy/stm32_radio_driver/radio_driver.c.obj (symbol from plugin) (bsp_disable_irq)
out/libbsp_loko_app.a(bsp_battery.c.obj)
                              CMakeFiles/loko_app.dir/Core/Src/application.c.obj (symbol from plugin) (bsp_battery_measure)
out/libbsp_loko_app.a(bsp_clocks.c.obj)
                              CMakeFiles/loko_app.dir/Core/Src/application.c.obj (symbol from plugin) (bsp_clock_init)
out/libbsp_loko_app.a(bsp_flash.c.obj)
                              CMakeFiles/loko_app.dir/Core/Src/application.c.obj (symbol from plugin) (bsp_flash_settings_read)
out/libbsp_loko_app.a(bsp_gpio.c.obj)
                              CMakeFiles/loko_app.dir/Core/Src/application.c.obj (symbol from plugin) (bsp_gpio_init)
out/libbsp_loko_app.a(bsp_low_power.c.obj)
                              CMakeFiles/loko_app.dir/Core/Src/application.c.obj (symbol from plugin) (bsp_lp_shutdown)
out/libbsp_loko_app.a(bsp_rtc.c.obj)
                              CMakeFiles/loko_app.dir/Core/Src/application.c.obj (symbol from plugin) (bsp_rtc_init)
out/libbsp_loko_app.a(bsp_subghz.c.obj)
                              CMakeFiles/loko_app.dir/Middlewares/Third_Party/SubGHz_Phy/stm32_radio_driver/radio_driver.c.obj (symbol from plugin) (subghz_init)
out/libbsp_loko_app.a(bsp_uart.c.obj)
                              CMakeFiles/loko_app.dir/Core/Src/application.c.obj (symbol from plugin) (bsp_uart_gnss_init)
out/libbsp_loko_app.a(stm32wlxx_LoRa_E5_mini_radio.c.obj)
                              radio_board_if.c.obj (symbol from plugin) (bsp_radio_init)
out/libbsp_loko_app.a(system_stm32wlxx.c.obj)
                              bsp_clocks.c.obj (symbol from plugin) (SystemCoreClock)
out/libbsp_loko_app.a(startup_stm32wle5jcix.s.obj)
                              (Reset_Handler)
out/libbsp_loko_app.a(stm32wlxx_hal_cortex.c.obj)
                              bsp.c.obj (symbol from plugin) (HAL_NVIC_SetPriority)
out/libbsp_loko_app.a(stm32wlxx_hal_flash_ex.c.obj)
                              bsp_flash.c.obj (symbol from plugin) (HAL_FLASHEx_Erase)
out/libbsp_loko_app.a(stm32wlxx_hal_flash.c.obj)
                              bsp_flash.c.obj (symbol from plugin) (HAL_FLASH_Unlock)
out/libbsp_loko_app.a(stm32wlxx_hal_gpio.c.obj)
                              stm32wlxx_LoRa_E5_mini_radio.c.obj (symbol from plugin) (HAL_GPIO_Init)
out/libbsp_loko_app.a(stm32wlxx_hal_pwr_ex.c.obj)
                              bsp_low_power.c.obj (symbol from plugin) (HAL_PWREx_DisableSRAMRetention)
out/libbsp_loko_app.a(stm32wlxx_hal_pwr.c.obj)
                              bsp_low_power.c.obj (symbol from plugin) (HAL_PWR_EnableWakeUpPin)
out/libbsp_loko_app.a(stm32wlxx_hal_rtc_ex.c.obj)
                              bsp_rtc.c.obj (symbol from plugin) (HAL_RTCEx_SetWakeUpTimer_IT)
out/libbsp_loko_app.a(stm32wlxx_hal_rtc.c.obj)
                              CMakeFiles/loko_app.dir/Core/Src/lorawan_app/timer_if.c.obj (symbol from plugin) (HAL_RTC_DeactivateAlarm)
out/libbsp_loko_app.a(stm32wlxx_hal_subghz.c.obj)
                              bsp_subghz.c.obj (symbol from plugin) (HAL_SUBGHZ_Init)
out/libbsp_loko_app.a(stm32wlxx_hal.c.obj)
                              bsp_clocks.c.obj (symbol from plugin) (HAL_InitTick)
out/libbsp_loko_app.a(stm32wlxx_ll_gpio.c.obj)
                              bsp_gpio.c.obj (symbol from plugin) (LL_GPIO_Init)
out/libbsp_loko_app.a(stm32wlxx_ll_lpuart.c.obj)
                              bsp_uart.c.obj (symbol from plugin) (LL_LPUART_Init)
out/libbsp_loko_app.a(stm32wlxx_ll_rcc.c.obj)
                              stm32wlxx_ll_lpuart.c.obj (symbol from plugin) (LL_RCC_GetLPUARTClockFreq)
out/libbsp_loko_app.a(stm32wlxx_ll_usart.c.obj)
                              bsp_uart.c.obj (symbol from plugin) (LL_USART_Init)
out/libbsp_loko_app.a(stm32wlxx_ll_utils.c.obj)
                              bsp_clocks.c.obj (symbol from plugin) (LL_SetSystemCoreClock)
out/libbsp_loko_app.a(bsp_adc.c.obj)
                              bsp_battery.c.obj (symbol from plugin) (bsp_adc_get_vbat_mv)
out/libbsp_loko_app.a(bsp_stm32wlxx_it.c.obj)
                              out/libbsp_loko_app.a(startup_stm32wle5jcix.s.obj) (NMI_Handler)
out/libbsp_loko_app.a(stm32wlxx_hal_adc.c.obj)
                              bsp_adc.c.obj (symbol from plugin) (HAL_ADC_Init)
out/libbsp_loko_app.a(stm32wlxx_hal_dma.c.obj)
                              bsp_adc.c.obj (symbol from plugin) (HAL_DMA_Init)
out/libbsp_loko_app.a(stm32wlxx_hal_rcc.c.obj)
                              stm32wlxx_hal.c.obj (symbol from plugin) (HAL_RCC_GetHCLKFreq)
out/libbsp_loko_app.a(stm32wlxx_hal_adc_ex.c.obj)
                              stm32wlxx_hal_adc.c.obj (symbol from plugin) (HAL_ADCEx_LevelOutOfWindow2Callback)
/usr/gcc-arm-none-eabi-10.3-2021.07/bin/../lib/gcc/arm-none-eabi/10.3.1/../../../../arm-none-eabi/lib/thumb/v7e-m/nofp/libg_nano.a(lib_a-assert.o)
                              CMakeFiles/loko_app.dir/Middlewares/Third_Party/cayenne_lpp_c/cayenne_lpp_c.c.obj (symbol from plugin) (__assert_func)
/usr/gcc-arm-none-eabi-10.3-2021.07/bin/../lib/gcc/arm-none-eabi/10.3.1/../../../../arm-none-eabi/lib/thumb/v7e-m/nofp/libg_nano.a(lib_a-ctype_.o)
                              CMakeFiles/loko_app.dir/Core/cmd_line/cmd_line.c.obj (symbol from plugin) (_ctype_)
/usr/gcc-arm-none-eabi-10.3-2021.07/bin/../lib/gcc/arm-none-eabi/10.3.1/../../../../arm-none-eabi/lib/thumb/v7e-m/nofp/libg_nano.a(lib_a-errno.o)
                              CMakeFiles/loko_app.dir/Core/Src/sysmem.c.obj (symbol from plugin) (__errno)
/usr/gcc-arm-none-eabi-10.3-2021.07/bin/../lib/gcc/arm-none-eabi/10.3.1/../../../../arm-none-eabi/lib/thumb/v7e-m/nofp/libg_nano.a(lib_a-exit.o)
                              /usr/gcc-arm-none-eabi-10.3-2021.07/bin/../lib/gcc/arm-none-eabi/10.3.1/../../../../arm-none-eabi/lib/thumb/v7e-m/nofp/crt0.o (exit)
/usr/gcc-arm-none-eabi-10.3-2021.07/bin/../lib/gcc/arm-none-eabi/10.3.1/../../../../arm-none-eabi/lib/thumb/v7e-m/nofp/libg_nano.a(lib_a-fprintf.o)
                              /usr/gcc-arm-none-eabi-10.3-2021.07/bin/../lib/gcc/arm-none-eabi/10.3.1/../../../../arm-none-eabi/lib/thumb/v7e-m/nofp/libg_nano.a(lib_a-assert.o) (fiprintf)
/usr/gcc-arm-none-eabi-10.3-2021.07/bin/../lib/gcc/arm-none-eabi/10.3.1/../../../../arm-none-eabi/lib/thumb/v7e-m/nofp/libg_nano.a(lib_a-impure.o)
                              /usr/gcc-arm-none-eabi-10.3-2021.07/bin/../lib/gcc/arm-none-eabi/10.3.1/../../../../arm-none-eabi/lib/thumb/v7e-m/nofp/libg_nano.a(lib_a-exit.o) (_global_impure_ptr)
/usr/gcc-arm-none-eabi-10.3-2021.07/bin/../lib/gcc/arm-none-eabi/10.3.1/../../../../arm-none-eabi/lib/thumb/v7e-m/nofp/libg_nano.a(lib_a-init.o)
                              /usr/gcc-arm-none-eabi-10.3-2021.07/bin/../lib/gcc/arm-none-eabi/10.3.1/../../../../arm-none-eabi/lib/thumb/v7e-m/nofp/crt0.o (__libc_init_array)
/usr/gcc-arm-none-eabi-10.3-2021.07/bin/../lib/gcc/arm-none-eabi/10.3.1/../../../../arm-none-eabi/lib/thumb/v7e-m/nofp/libg_nano.a(lib_a-memset.o)
                              /usr/gcc-arm-none-eabi-10.3-2021.07/bin/../lib/gcc/arm-none-eabi/10.3.1/../../../../arm-none-eabi/lib/thumb/v7e-m/nofp/crt0.o (memset)
/usr/gcc-arm-none-eabi-10.3-2021.07/bin/../lib/gcc/arm-none-eabi/10.3.1/../../../../arm-none-eabi/lib/thumb/v7e-m/nofp/libg_nano.a(lib_a-nano-vfprintf.o)
                              /usr/gcc-arm-none-eabi-10.3-2021.07/bin/../lib/gcc/arm-none-eabi/10.3.1/../../../../arm-none-eabi/lib/thumb/v7e-m/nofp/libg_nano.a(lib_a-fprintf.o) (_vfprintf_r)
/usr/gcc-arm-none-eabi-10.3-2021.07/bin/../lib/gcc/arm-none-eabi/10.3.1/../../../../arm-none-eabi/lib/thumb/v7e-m/nofp/libg_nano.a(lib_a-nano-vfprintf_float.o)
                              /usr/gcc-arm-none-eabi-10.3-2021.07/bin/../lib/gcc/arm-none-eabi/10.3.1/../../../../arm-none-eabi/lib/thumb/v7e-m/nofp/libg_nano.a(lib_a-nano-vfprintf.o) (_printf_float)
/usr/gcc-arm-none-eabi-10.3-2021.07/bin/../lib/gcc/arm-none-eabi/10.3.1/../../../../arm-none-eabi/lib/thumb/v7e-m/nofp/libg_nano.a(lib_a-nano-vfprintf_i.o)
                              /usr/gcc-arm-none-eabi-10.3-2021.07/bin/../lib/gcc/arm-none-eabi/10.3.1/../../../../arm-none-eabi/lib/thumb/v7e-m/nofp/libg_nano.a(lib_a-nano-vfprintf_float.o) (_printf_common)
/usr/gcc-arm-none-eabi-10.3-2021.07/bin/../lib/gcc/arm-none-eabi/10.3.1/../../../../arm-none-eabi/lib/thumb/v7e-m/nofp/libg_nano.a(lib_a-strlen.o)
                              /usr/gcc-arm-none-eabi-10.3-2021.07/bin/../lib/gcc/arm-none-eabi/10.3.1/../../../../arm-none-eabi/lib/thumb/v7e-m/nofp/libg_nano.a(lib_a-nano-vfprintf_float.o) (strlen)
/usr/gcc-arm-none-eabi-10.3-2021.07/bin/../lib/gcc/arm-none-eabi/10.3.1/../../../../arm-none-eabi/lib/thumb/v7e-m/nofp/libg_nano.a(lib_a-strtod.o)
                              CMakeFiles/loko_app.dir/Middlewares/Third_Party/lwgps/lwgps.c.obj (symbol from plugin) (strtod)
/usr/gcc-arm-none-eabi-10.3-2021.07/bin/../lib/gcc/arm-none-eabi/10.3.1/../../../../arm-none-eabi/lib/thumb/v7e-m/nofp/libg_nano.a(lib_a-strtoll.o)
                              CMakeFiles/loko_app.dir/Core/cmd_line/cmd_line.c.obj (symbol from plugin) (strtoll)
/usr/gcc-arm-none-eabi-10.3-2021.07/bin/../lib/gcc/arm-none-eabi/10.3.1/../../../../arm-none-eabi/lib/thumb/v7e-m/nofp/libg_nano.a(lib_a-strtoull.o)
                              CMakeFiles/loko_app.dir/Core/cmd_line/cmd_line.c.obj (symbol from plugin) (strtoull)
/usr/gcc-arm-none-eabi-10.3-2021.07/bin/../lib/gcc/arm-none-eabi/10.3.1/../../../../arm-none-eabi/lib/thumb/v7e-m/nofp/libg_nano.a(lib_a-wbuf.o)
                              /usr/gcc-arm-none-eabi-10.3-2021.07/bin/../lib/gcc/arm-none-eabi/10.3.1/../../../../arm-none-eabi/lib/thumb/v7e-m/nofp/libg_nano.a(lib_a-nano-vfprintf.o) (__swbuf_r)
/usr/gcc-arm-none-eabi-10.3-2021.07/bin/../lib/gcc/arm-none-eabi/10.3.1/../../../../arm-none-eabi/lib/thumb/v7e-m/nofp/libg_nano.a(lib_a-wsetup.o)
                              /usr/gcc-arm-none-eabi-10.3-2021.07/bin/../lib/gcc/arm-none-eabi/10.3.1/../../../../arm-none-eabi/lib/thumb/v7e-m/nofp/libg_nano.a(lib_a-nano-vfprintf.o) (__swsetup_r)
/usr/gcc-arm-none-eabi-10.3-2021.07/bin/../lib/gcc/arm-none-eabi/10.3.1/../../../../arm-none-eabi/lib/thumb/v7e-m/nofp/libg_nano.a(lib_a-abort.o)
                              /usr/gcc-arm-none-eabi-10.3-2021.07/bin/../lib/gcc/arm-none-eabi/10.3.1/../../../../arm-none-eabi/lib/thumb/v7e-m/nofp/libg_nano.a(lib_a-assert.o) (abort)
/usr/gcc-arm-none-eabi-10.3-2021.07/bin/../lib/gcc/arm-none-eabi/10.3.1/../../../../arm-none-eabi/lib/thumb/v7e-m/nofp/libg_nano.a(lib_a-dtoa.o)
                              /usr/gcc-arm-none-eabi-10.3-2021.07/bin/../lib/gcc/arm-none-eabi/10.3.1/../../../../arm-none-eabi/lib/thumb/v7e-m/nofp/libg_nano.a(lib_a-nano-vfprintf_float.o) (_dtoa_r)
/usr/gcc-arm-none-eabi-10.3-2021.07/bin/../lib/gcc/arm-none-eabi/10.3.1/../../../../arm-none-eabi/lib/thumb/v7e-m/nofp/libg_nano.a(lib_a-fflush.o)
                              /usr/gcc-arm-none-eabi-10.3-2021.07/bin/../lib/gcc/arm-none-eabi/10.3.1/../../../../arm-none-eabi/lib/thumb/v7e-m/nofp/libg_nano.a(lib_a-wbuf.o) (_fflush_r)
/usr/gcc-arm-none-eabi-10.3-2021.07/bin/../lib/gcc/arm-none-eabi/10.3.1/../../../../arm-none-eabi/lib/thumb/v7e-m/nofp/libg_nano.a(lib_a-findfp.o)
                              /usr/gcc-arm-none-eabi-10.3-2021.07/bin/../lib/gcc/arm-none-eabi/10.3.1/../../../../arm-none-eabi/lib/thumb/v7e-m/nofp/libg_nano.a(lib_a-nano-vfprintf.o) (__sinit)
/usr/gcc-arm-none-eabi-10.3-2021.07/bin/../lib/gcc/arm-none-eabi/10.3.1/../../../../arm-none-eabi/lib/thumb/v7e-m/nofp/libg_nano.a(lib_a-fvwrite.o)
                              /usr/gcc-arm-none-eabi-10.3-2021.07/bin/../lib/gcc/arm-none-eabi/10.3.1/../../../../arm-none-eabi/lib/thumb/v7e-m/nofp/libg_nano.a(lib_a-nano-vfprintf.o) (__sfvwrite_r)
/usr/gcc-arm-none-eabi-10.3-2021.07/bin/../lib/gcc/arm-none-eabi/10.3.1/../../../../arm-none-eabi/lib/thumb/v7e-m/nofp/libg_nano.a(lib_a-fwalk.o)
                              /usr/gcc-arm-none-eabi-10.3-2021.07/bin/../lib/gcc/arm-none-eabi/10.3.1/../../../../arm-none-eabi/lib/thumb/v7e-m/nofp/libg_nano.a(lib_a-findfp.o) (_fwalk)
/usr/gcc-arm-none-eabi-10.3-2021.07/bin/../lib/gcc/arm-none-eabi/10.3.1/../../../../arm-none-eabi/lib/thumb/v7e-m/nofp/libg_nano.a(lib_a-gdtoa-gethex.o)
                              /usr/gcc-arm-none-eabi-10.3-2021.07/bin/../lib/gcc/arm-none-eabi/10.3.1/../../../../arm-none-eabi/lib/thumb/v7e-m/nofp/libg_nano.a(lib_a-strtod.o) (__gethex)
/usr/gcc-arm-none-eabi-10.3-2021.07/bin/../lib/gcc/arm-none-eabi/10.3.1/../../../../arm-none-eabi/lib/thumb/v7e-m/nofp/libg_nano.a(lib_a-gdtoa-hexnan.o)
                              /usr/gcc-arm-none-eabi-10.3-2021.07/bin/../lib/gcc/arm-none-eabi/10.3.1/../../../../arm-none-eabi/lib/thumb/v7e-m/nofp/libg_nano.a(lib_a-strtod.o) (__match)
/usr/gcc-arm-none-eabi-10.3-2021.07/bin/../lib/gcc/arm-none-eabi/10.3.1/../../../../arm-none-eabi/lib/thumb/v7e-m/nofp/libg_nano.a(lib_a-lnumeric.o)
                              /usr/gcc-arm-none-eabi-10.3-2021.07/bin/../lib/gcc/arm-none-eabi/10.3.1/../../../../arm-none-eabi/lib/thumb/v7e-m/nofp/libg_nano.a(lib_a-strtod.o) (_C_numeric_locale)
/usr/gcc-arm-none-eabi-10.3-2021.07/bin/../lib/gcc/arm-none-eabi/10.3.1/../../../../arm-none-eabi/lib/thumb/v7e-m/nofp/libg_nano.a(lib_a-locale.o)
                              /usr/gcc-arm-none-eabi-10.3-2021.07/bin/../lib/gcc/arm-none-eabi/10.3.1/../../../../arm-none-eabi/lib/thumb/v7e-m/nofp/libg_nano.a(lib_a-strtod.o) (__global_locale)
/usr/gcc-arm-none-eabi-10.3-2021.07/bin/../lib/gcc/arm-none-eabi/10.3.1/../../../../arm-none-eabi/lib/thumb/v7e-m/nofp/libg_nano.a(lib_a-localeconv.o)
                              /usr/gcc-arm-none-eabi-10.3-2021.07/bin/../lib/gcc/arm-none-eabi/10.3.1/../../../../arm-none-eabi/lib/thumb/v7e-m/nofp/libg_nano.a(lib_a-nano-vfprintf_float.o) (_localeconv_r)
/usr/gcc-arm-none-eabi-10.3-2021.07/bin/../lib/gcc/arm-none-eabi/10.3.1/../../../../arm-none-eabi/lib/thumb/v7e-m/nofp/libg_nano.a(lib_a-lock.o)
                              /usr/gcc-arm-none-eabi-10.3-2021.07/bin/../lib/gcc/arm-none-eabi/10.3.1/../../../../arm-none-eabi/lib/thumb/v7e-m/nofp/libg_nano.a(lib_a-findfp.o) (__retarget_lock_init_recursive)
/usr/gcc-arm-none-eabi-10.3-2021.07/bin/../lib/gcc/arm-none-eabi/10.3.1/../../../../arm-none-eabi/lib/thumb/v7e-m/nofp/libg_nano.a(lib_a-makebuf.o)
                              /usr/gcc-arm-none-eabi-10.3-2021.07/bin/../lib/gcc/arm-none-eabi/10.3.1/../../../../arm-none-eabi/lib/thumb/v7e-m/nofp/libg_nano.a(lib_a-wsetup.o) (__smakebuf_r)
/usr/gcc-arm-none-eabi-10.3-2021.07/bin/../lib/gcc/arm-none-eabi/10.3.1/../../../../arm-none-eabi/lib/thumb/v7e-m/nofp/libg_nano.a(lib_a-malloc.o)
                              /usr/gcc-arm-none-eabi-10.3-2021.07/bin/../lib/gcc/arm-none-eabi/10.3.1/../../../../arm-none-eabi/lib/thumb/v7e-m/nofp/libg_nano.a(lib_a-dtoa.o) (malloc)
/usr/gcc-arm-none-eabi-10.3-2021.07/bin/../lib/gcc/arm-none-eabi/10.3.1/../../../../arm-none-eabi/lib/thumb/v7e-m/nofp/libg_nano.a(lib_a-mbtowc_r.o)
                              /usr/gcc-arm-none-eabi-10.3-2021.07/bin/../lib/gcc/arm-none-eabi/10.3.1/../../../../arm-none-eabi/lib/thumb/v7e-m/nofp/libg_nano.a(lib_a-locale.o) (__ascii_mbtowc)
/usr/gcc-arm-none-eabi-10.3-2021.07/bin/../lib/gcc/arm-none-eabi/10.3.1/../../../../arm-none-eabi/lib/thumb/v7e-m/nofp/libg_nano.a(lib_a-memchr.o)
                              /usr/gcc-arm-none-eabi-10.3-2021.07/bin/../lib/gcc/arm-none-eabi/10.3.1/../../../../arm-none-eabi/lib/thumb/v7e-m/nofp/libg_nano.a(lib_a-nano-vfprintf.o) (memchr)
/usr/gcc-arm-none-eabi-10.3-2021.07/bin/../lib/gcc/arm-none-eabi/10.3.1/../../../../arm-none-eabi/lib/thumb/v7e-m/nofp/libg_nano.a(lib_a-memcpy-stub.o)
                              /usr/gcc-arm-none-eabi-10.3-2021.07/bin/../lib/gcc/arm-none-eabi/10.3.1/../../../../arm-none-eabi/lib/thumb/v7e-m/nofp/libg_nano.a(lib_a-strtod.o) (memcpy)
/usr/gcc-arm-none-eabi-10.3-2021.07/bin/../lib/gcc/arm-none-eabi/10.3.1/../../../../arm-none-eabi/lib/thumb/v7e-m/nofp/libg_nano.a(lib_a-memmove.o)
                              /usr/gcc-arm-none-eabi-10.3-2021.07/bin/../lib/gcc/arm-none-eabi/10.3.1/../../../../arm-none-eabi/lib/thumb/v7e-m/nofp/libg_nano.a(lib_a-fvwrite.o) (memmove)
/usr/gcc-arm-none-eabi-10.3-2021.07/bin/../lib/gcc/arm-none-eabi/10.3.1/../../../../arm-none-eabi/lib/thumb/v7e-m/nofp/libg_nano.a(lib_a-mprec.o)
                              /usr/gcc-arm-none-eabi-10.3-2021.07/bin/../lib/gcc/arm-none-eabi/10.3.1/../../../../arm-none-eabi/lib/thumb/v7e-m/nofp/libg_nano.a(lib_a-strtod.o) (_Balloc)
/usr/gcc-arm-none-eabi-10.3-2021.07/bin/../lib/gcc/arm-none-eabi/10.3.1/../../../../arm-none-eabi/lib/thumb/v7e-m/nofp/libg_nano.a(lib_a-nano-callocr.o)
                              /usr/gcc-arm-none-eabi-10.3-2021.07/bin/../lib/gcc/arm-none-eabi/10.3.1/../../../../arm-none-eabi/lib/thumb/v7e-m/nofp/libg_nano.a(lib_a-mprec.o) (_calloc_r)
/usr/gcc-arm-none-eabi-10.3-2021.07/bin/../lib/gcc/arm-none-eabi/10.3.1/../../../../arm-none-eabi/lib/thumb/v7e-m/nofp/libg_nano.a(lib_a-nano-freer.o)
                              /usr/gcc-arm-none-eabi-10.3-2021.07/bin/../lib/gcc/arm-none-eabi/10.3.1/../../../../arm-none-eabi/lib/thumb/v7e-m/nofp/libg_nano.a(lib_a-wsetup.o) (_free_r)
/usr/gcc-arm-none-eabi-10.3-2021.07/bin/../lib/gcc/arm-none-eabi/10.3.1/../../../../arm-none-eabi/lib/thumb/v7e-m/nofp/libg_nano.a(lib_a-nano-mallocr.o)
                              /usr/gcc-arm-none-eabi-10.3-2021.07/bin/../lib/gcc/arm-none-eabi/10.3.1/../../../../arm-none-eabi/lib/thumb/v7e-m/nofp/libg_nano.a(lib_a-findfp.o) (_malloc_r)
/usr/gcc-arm-none-eabi-10.3-2021.07/bin/../lib/gcc/arm-none-eabi/10.3.1/../../../../arm-none-eabi/lib/thumb/v7e-m/nofp/libg_nano.a(lib_a-nano-reallocr.o)
                              /usr/gcc-arm-none-eabi-10.3-2021.07/bin/../lib/gcc/arm-none-eabi/10.3.1/../../../../arm-none-eabi/lib/thumb/v7e-m/nofp/libg_nano.a(lib_a-fvwrite.o) (_realloc_r)
/usr/gcc-arm-none-eabi-10.3-2021.07/bin/../lib/gcc/arm-none-eabi/10.3.1/../../../../arm-none-eabi/lib/thumb/v7e-m/nofp/libg_nano.a(lib_a-s_nan.o)
                              /usr/gcc-arm-none-eabi-10.3-2021.07/bin/../lib/gcc/arm-none-eabi/10.3.1/../../../../arm-none-eabi/lib/thumb/v7e-m/nofp/libg_nano.a(lib_a-strtod.o) (nan)
/usr/gcc-arm-none-eabi-10.3-2021.07/bin/../lib/gcc/arm-none-eabi/10.3.1/../../../../arm-none-eabi/lib/thumb/v7e-m/nofp/libg_nano.a(lib_a-sbrkr.o)
                              /usr/gcc-arm-none-eabi-10.3-2021.07/bin/../lib/gcc/arm-none-eabi/10.3.1/../../../../arm-none-eabi/lib/thumb/v7e-m/nofp/libg_nano.a(lib_a-nano-mallocr.o) (_sbrk_r)
/usr/gcc-arm-none-eabi-10.3-2021.07/bin/../lib/gcc/arm-none-eabi/10.3.1/../../../../arm-none-eabi/lib/thumb/v7e-m/nofp/libg_nano.a(lib_a-sf_nan.o)
                              /usr/gcc-arm-none-eabi-10.3-2021.07/bin/../lib/gcc/arm-none-eabi/10.3.1/../../../../arm-none-eabi/lib/thumb/v7e-m/nofp/libg_nano.a(lib_a-strtod.o) (nanf)
/usr/gcc-arm-none-eabi-10.3-2021.07/bin/../lib/gcc/arm-none-eabi/10.3.1/../../../../arm-none-eabi/lib/thumb/v7e-m/nofp/libg_nano.a(lib_a-signal.o)
                              /usr/gcc-arm-none-eabi-10.3-2021.07/bin/../lib/gcc/arm-none-eabi/10.3.1/../../../../arm-none-eabi/lib/thumb/v7e-m/nofp/libg_nano.a(lib_a-abort.o) (raise)
/usr/gcc-arm-none-eabi-10.3-2021.07/bin/../lib/gcc/arm-none-eabi/10.3.1/../../../../arm-none-eabi/lib/thumb/v7e-m/nofp/libg_nano.a(lib_a-signalr.o)
                              /usr/gcc-arm-none-eabi-10.3-2021.07/bin/../lib/gcc/arm-none-eabi/10.3.1/../../../../arm-none-eabi/lib/thumb/v7e-m/nofp/libg_nano.a(lib_a-signal.o) (_kill_r)
/usr/gcc-arm-none-eabi-10.3-2021.07/bin/../lib/gcc/arm-none-eabi/10.3.1/../../../../arm-none-eabi/lib/thumb/v7e-m/nofp/libg_nano.a(lib_a-stdio.o)
                              /usr/gcc-arm-none-eabi-10.3-2021.07/bin/../lib/gcc/arm-none-eabi/10.3.1/../../../../arm-none-eabi/lib/thumb/v7e-m/nofp/libg_nano.a(lib_a-findfp.o) (__sread)
/usr/gcc-arm-none-eabi-10.3-2021.07/bin/../lib/gcc/arm-none-eabi/10.3.1/../../../../arm-none-eabi/lib/thumb/v7e-m/nofp/libg_nano.a(lib_a-strcmp.o)
                              /usr/gcc-arm-none-eabi-10.3-2021.07/bin/../lib/gcc/arm-none-eabi/10.3.1/../../../../arm-none-eabi/lib/thumb/v7e-m/nofp/libg_nano.a(lib_a-locale.o) (strcmp)
/usr/gcc-arm-none-eabi-10.3-2021.07/bin/../lib/gcc/arm-none-eabi/10.3.1/../../../../arm-none-eabi/lib/thumb/v7e-m/nofp/libg_nano.a(lib_a-strncmp.o)
                              /usr/gcc-arm-none-eabi-10.3-2021.07/bin/../lib/gcc/arm-none-eabi/10.3.1/../../../../arm-none-eabi/lib/thumb/v7e-m/nofp/libg_nano.a(lib_a-strtod.o) (strncmp)
/usr/gcc-arm-none-eabi-10.3-2021.07/bin/../lib/gcc/arm-none-eabi/10.3.1/../../../../arm-none-eabi/lib/thumb/v7e-m/nofp/libg_nano.a(lib_a-wctomb_r.o)
                              /usr/gcc-arm-none-eabi-10.3-2021.07/bin/../lib/gcc/arm-none-eabi/10.3.1/../../../../arm-none-eabi/lib/thumb/v7e-m/nofp/libg_nano.a(lib_a-locale.o) (__ascii_wctomb)
/usr/gcc-arm-none-eabi-10.3-2021.07/bin/../lib/gcc/arm-none-eabi/10.3.1/../../../../arm-none-eabi/lib/thumb/v7e-m/nofp/libg_nano.a(lib_a-writer.o)
                              /usr/gcc-arm-none-eabi-10.3-2021.07/bin/../lib/gcc/arm-none-eabi/10.3.1/../../../../arm-none-eabi/lib/thumb/v7e-m/nofp/libg_nano.a(lib_a-stdio.o) (_write_r)
/usr/gcc-arm-none-eabi-10.3-2021.07/bin/../lib/gcc/arm-none-eabi/10.3.1/../../../../arm-none-eabi/lib/thumb/v7e-m/nofp/libg_nano.a(lib_a-closer.o)
                              /usr/gcc-arm-none-eabi-10.3-2021.07/bin/../lib/gcc/arm-none-eabi/10.3.1/../../../../arm-none-eabi/lib/thumb/v7e-m/nofp/libg_nano.a(lib_a-stdio.o) (_close_r)
/usr/gcc-arm-none-eabi-10.3-2021.07/bin/../lib/gcc/arm-none-eabi/10.3.1/../../../../arm-none-eabi/lib/thumb/v7e-m/nofp/libg_nano.a(lib_a-fstatr.o)
                              /usr/gcc-arm-none-eabi-10.3-2021.07/bin/../lib/gcc/arm-none-eabi/10.3.1/../../../../arm-none-eabi/lib/thumb/v7e-m/nofp/libg_nano.a(lib_a-makebuf.o) (_fstat_r)
/usr/gcc-arm-none-eabi-10.3-2021.07/bin/../lib/gcc/arm-none-eabi/10.3.1/../../../../arm-none-eabi/lib/thumb/v7e-m/nofp/libg_nano.a(lib_a-isattyr.o)
                              /usr/gcc-arm-none-eabi-10.3-2021.07/bin/../lib/gcc/arm-none-eabi/10.3.1/../../../../arm-none-eabi/lib/thumb/v7e-m/nofp/libg_nano.a(lib_a-makebuf.o) (_isatty_r)
/usr/gcc-arm-none-eabi-10.3-2021.07/bin/../lib/gcc/arm-none-eabi/10.3.1/../../../../arm-none-eabi/lib/thumb/v7e-m/nofp/libg_nano.a(lib_a-lseekr.o)
                              /usr/gcc-arm-none-eabi-10.3-2021.07/bin/../lib/gcc/arm-none-eabi/10.3.1/../../../../arm-none-eabi/lib/thumb/v7e-m/nofp/libg_nano.a(lib_a-stdio.o) (_lseek_r)
/usr/gcc-arm-none-eabi-10.3-2021.07/bin/../lib/gcc/arm-none-eabi/10.3.1/../../../../arm-none-eabi/lib/thumb/v7e-m/nofp/libg_nano.a(lib_a-mlock.o)
                              /usr/gcc-arm-none-eabi-10.3-2021.07/bin/../lib/gcc/arm-none-eabi/10.3.1/../../../../arm-none-eabi/lib/thumb/v7e-m/nofp/libg_nano.a(lib_a-nano-freer.o) (__malloc_lock)
/usr/gcc-arm-none-eabi-10.3-2021.07/bin/../lib/gcc/arm-none-eabi/10.3.1/../../../../arm-none-eabi/lib/thumb/v7e-m/nofp/libg_nano.a(lib_a-nano-msizer.o)
                              /usr/gcc-arm-none-eabi-10.3-2021.07/bin/../lib/gcc/arm-none-eabi/10.3.1/../../../../arm-none-eabi/lib/thumb/v7e-m/nofp/libg_nano.a(lib_a-nano-reallocr.o) (_malloc_usable_size_r)
/usr/gcc-arm-none-eabi-10.3-2021.07/bin/../lib/gcc/arm-none-eabi/10.3.1/../../../../arm-none-eabi/lib/thumb/v7e-m/nofp/libg_nano.a(lib_a-readr.o)
                              /usr/gcc-arm-none-eabi-10.3-2021.07/bin/../lib/gcc/arm-none-eabi/10.3.1/../../../../arm-none-eabi/lib/thumb/v7e-m/nofp/libg_nano.a(lib_a-stdio.o) (_read_r)
/usr/gcc-arm-none-eabi-10.3-2021.07/bin/../lib/gcc/arm-none-eabi/10.3.1/../../../../arm-none-eabi/lib/thumb/v7e-m/nofp/libg_nano.a(lib_a-reent.o)
                              /usr/gcc-arm-none-eabi-10.3-2021.07/bin/../lib/gcc/arm-none-eabi/10.3.1/../../../../arm-none-eabi/lib/thumb/v7e-m/nofp/libg_nano.a(lib_a-sbrkr.o) (errno)
/usr/gcc-arm-none-eabi-10.3-2021.07/bin/../lib/gcc/arm-none-eabi/10.3.1/thumb/v7e-m/nofp/libgcc.a(_arm_muldf3.o)
                              /usr/gcc-arm-none-eabi-10.3-2021.07/bin/../lib/gcc/arm-none-eabi/10.3.1/../../../../arm-none-eabi/lib/thumb/v7e-m/nofp/libg_nano.a(lib_a-strtod.o) (__aeabi_dmul)
/usr/gcc-arm-none-eabi-10.3-2021.07/bin/../lib/gcc/arm-none-eabi/10.3.1/thumb/v7e-m/nofp/libgcc.a(_arm_addsubdf3.o)
                              /usr/gcc-arm-none-eabi-10.3-2021.07/bin/../lib/gcc/arm-none-eabi/10.3.1/../../../../arm-none-eabi/lib/thumb/v7e-m/nofp/libg_nano.a(lib_a-strtod.o) (__aeabi_dsub)
/usr/gcc-arm-none-eabi-10.3-2021.07/bin/../lib/gcc/arm-none-eabi/10.3.1/thumb/v7e-m/nofp/libgcc.a(_arm_muldivdf3.o)
                              /usr/gcc-arm-none-eabi-10.3-2021.07/bin/../lib/gcc/arm-none-eabi/10.3.1/../../../../arm-none-eabi/lib/thumb/v7e-m/nofp/libg_nano.a(lib_a-strtod.o) (__aeabi_ddiv)
/usr/gcc-arm-none-eabi-10.3-2021.07/bin/../lib/gcc/arm-none-eabi/10.3.1/thumb/v7e-m/nofp/libgcc.a(_arm_cmpdf2.o)
                              /usr/gcc-arm-none-eabi-10.3-2021.07/bin/../lib/gcc/arm-none-eabi/10.3.1/../../../../arm-none-eabi/lib/thumb/v7e-m/nofp/libg_nano.a(lib_a-nano-vfprintf_float.o) (__aeabi_dcmpeq)
/usr/gcc-arm-none-eabi-10.3-2021.07/bin/../lib/gcc/arm-none-eabi/10.3.1/thumb/v7e-m/nofp/libgcc.a(_arm_unorddf2.o)
                              /usr/gcc-arm-none-eabi-10.3-2021.07/bin/../lib/gcc/arm-none-eabi/10.3.1/../../../../arm-none-eabi/lib/thumb/v7e-m/nofp/libg_nano.a(lib_a-nano-vfprintf_float.o) (__aeabi_dcmpun)
/usr/gcc-arm-none-eabi-10.3-2021.07/bin/../lib/gcc/arm-none-eabi/10.3.1/thumb/v7e-m/nofp/libgcc.a(_arm_fixdfsi.o)
                              /usr/gcc-arm-none-eabi-10.3-2021.07/bin/../lib/gcc/arm-none-eabi/10.3.1/../../../../arm-none-eabi/lib/thumb/v7e-m/nofp/libg_nano.a(lib_a-dtoa.o) (__aeabi_d2iz)
/usr/gcc-arm-none-eabi-10.3-2021.07/bin/../lib/gcc/arm-none-eabi/10.3.1/thumb/v7e-m/nofp/libgcc.a(_arm_fixunsdfsi.o)
                              /usr/gcc-arm-none-eabi-10.3-2021.07/bin/../lib/gcc/arm-none-eabi/10.3.1/../../../../arm-none-eabi/lib/thumb/v7e-m/nofp/libg_nano.a(lib_a-strtod.o) (__aeabi_d2uiz)
/usr/gcc-arm-none-eabi-10.3-2021.07/bin/../lib/gcc/arm-none-eabi/10.3.1/thumb/v7e-m/nofp/libgcc.a(_arm_truncdfsf2.o)
                              /usr/gcc-arm-none-eabi-10.3-2021.07/bin/../lib/gcc/arm-none-eabi/10.3.1/../../../../arm-none-eabi/lib/thumb/v7e-m/nofp/libg_nano.a(lib_a-strtod.o) (__aeabi_d2f)
/usr/gcc-arm-none-eabi-10.3-2021.07/bin/../lib/gcc/arm-none-eabi/10.3.1/thumb/v7e-m/nofp/libgcc.a(_arm_cmpsf2.o)
                              /usr/gcc-arm-none-eabi-10.3-2021.07/bin/../lib/gcc/arm-none-eabi/10.3.1/../../../../arm-none-eabi/lib/thumb/v7e-m/nofp/libg_nano.a(lib_a-strtod.o) (__aeabi_fcmple)
/usr/gcc-arm-none-eabi-10.3-2021.07/bin/../lib/gcc/arm-none-eabi/10.3.1/thumb/v7e-m/nofp/libgcc.a(_arm_unordsf2.o)
                              /usr/gcc-arm-none-eabi-10.3-2021.07/bin/../lib/gcc/arm-none-eabi/10.3.1/../../../../arm-none-eabi/lib/thumb/v7e-m/nofp/libg_nano.a(lib_a-strtod.o) (__aeabi_fcmpun)
/usr/gcc-arm-none-eabi-10.3-2021.07/bin/../lib/gcc/arm-none-eabi/10.3.1/thumb/v7e-m/nofp/libgcc.a(_aeabi_uldivmod.o)
                              /usr/gcc-arm-none-eabi-10.3-2021.07/bin/../lib/gcc/arm-none-eabi/10.3.1/../../../../arm-none-eabi/lib/thumb/v7e-m/nofp/libg_nano.a(lib_a-strtoll.o) (__aeabi_uldivmod)
/usr/gcc-arm-none-eabi-10.3-2021.07/bin/../lib/gcc/arm-none-eabi/10.3.1/thumb/v7e-m/nofp/libgcc.a(_fixdfdi.o)
                              /usr/gcc-arm-none-eabi-10.3-2021.07/bin/../lib/gcc/arm-none-eabi/10.3.1/../../../../arm-none-eabi/lib/thumb/v7e-m/nofp/libg_nano.a(lib_a-strtod.o) (__aeabi_d2lz)
/usr/gcc-arm-none-eabi-10.3-2021.07/bin/../lib/gcc/arm-none-eabi/10.3.1/thumb/v7e-m/nofp/libgcc.a(_fixunsdfdi.o)
                              /usr/gcc-arm-none-eabi-10.3-2021.07/bin/../lib/gcc/arm-none-eabi/10.3.1/thumb/v7e-m/nofp/libgcc.a(_fixdfdi.o) (__aeabi_d2ulz)
/usr/gcc-arm-none-eabi-10.3-2021.07/bin/../lib/gcc/arm-none-eabi/10.3.1/thumb/v7e-m/nofp/libgcc.a(_udivmoddi4.o)
                              /usr/gcc-arm-none-eabi-10.3-2021.07/bin/../lib/gcc/arm-none-eabi/10.3.1/thumb/v7e-m/nofp/libgcc.a(_aeabi_uldivmod.o) (__udivmoddi4)
/usr/gcc-arm-none-eabi-10.3-2021.07/bin/../lib/gcc/arm-none-eabi/10.3.1/thumb/v7e-m/nofp/libgcc.a(_dvmd_tls.o)
                              /usr/gcc-arm-none-eabi-10.3-2021.07/bin/../lib/gcc/arm-none-eabi/10.3.1/thumb/v7e-m/nofp/libgcc.a(_aeabi_uldivmod.o) (__aeabi_ldiv0)
/usr/gcc-arm-none-eabi-10.3-2021.07/bin/../lib/gcc/arm-none-eabi/10.3.1/../../../../arm-none-eabi/lib/thumb/v7e-m/nofp/libnosys.a(close.o)
                              /usr/gcc-arm-none-eabi-10.3-2021.07/bin/../lib/gcc/arm-none-eabi/10.3.1/../../../../arm-none-eabi/lib/thumb/v7e-m/nofp/libg_nano.a(lib_a-closer.o) (_close)
/usr/gcc-arm-none-eabi-10.3-2021.07/bin/../lib/gcc/arm-none-eabi/10.3.1/../../../../arm-none-eabi/lib/thumb/v7e-m/nofp/libnosys.a(fstat.o)
                              /usr/gcc-arm-none-eabi-10.3-2021.07/bin/../lib/gcc/arm-none-eabi/10.3.1/../../../../arm-none-eabi/lib/thumb/v7e-m/nofp/libg_nano.a(lib_a-fstatr.o) (_fstat)
/usr/gcc-arm-none-eabi-10.3-2021.07/bin/../lib/gcc/arm-none-eabi/10.3.1/../../../../arm-none-eabi/lib/thumb/v7e-m/nofp/libnosys.a(getpid.o)
                              /usr/gcc-arm-none-eabi-10.3-2021.07/bin/../lib/gcc/arm-none-eabi/10.3.1/../../../../arm-none-eabi/lib/thumb/v7e-m/nofp/libg_nano.a(lib_a-signalr.o) (_getpid)
/usr/gcc-arm-none-eabi-10.3-2021.07/bin/../lib/gcc/arm-none-eabi/10.3.1/../../../../arm-none-eabi/lib/thumb/v7e-m/nofp/libnosys.a(isatty.o)
                              /usr/gcc-arm-none-eabi-10.3-2021.07/bin/../lib/gcc/arm-none-eabi/10.3.1/../../../../arm-none-eabi/lib/thumb/v7e-m/nofp/libg_nano.a(lib_a-isattyr.o) (_isatty)
/usr/gcc-arm-none-eabi-10.3-2021.07/bin/../lib/gcc/arm-none-eabi/10.3.1/../../../../arm-none-eabi/lib/thumb/v7e-m/nofp/libnosys.a(kill.o)
                              /usr/gcc-arm-none-eabi-10.3-2021.07/bin/../lib/gcc/arm-none-eabi/10.3.1/../../../../arm-none-eabi/lib/thumb/v7e-m/nofp/libg_nano.a(lib_a-signalr.o) (_kill)
/usr/gcc-arm-none-eabi-10.3-2021.07/bin/../lib/gcc/arm-none-eabi/10.3.1/../../../../arm-none-eabi/lib/thumb/v7e-m/nofp/libnosys.a(lseek.o)
                              /usr/gcc-arm-none-eabi-10.3-2021.07/bin/../lib/gcc/arm-none-eabi/10.3.1/../../../../arm-none-eabi/lib/thumb/v7e-m/nofp/libg_nano.a(lib_a-lseekr.o) (_lseek)
/usr/gcc-arm-none-eabi-10.3-2021.07/bin/../lib/gcc/arm-none-eabi/10.3.1/../../../../arm-none-eabi/lib/thumb/v7e-m/nofp/libnosys.a(read.o)
                              /usr/gcc-arm-none-eabi-10.3-2021.07/bin/../lib/gcc/arm-none-eabi/10.3.1/../../../../arm-none-eabi/lib/thumb/v7e-m/nofp/libg_nano.a(lib_a-readr.o) (_read)
/usr/gcc-arm-none-eabi-10.3-2021.07/bin/../lib/gcc/arm-none-eabi/10.3.1/../../../../arm-none-eabi/lib/thumb/v7e-m/nofp/libnosys.a(write.o)
                              /usr/gcc-arm-none-eabi-10.3-2021.07/bin/../lib/gcc/arm-none-eabi/10.3.1/../../../../arm-none-eabi/lib/thumb/v7e-m/nofp/libg_nano.a(lib_a-writer.o) (_write)
/usr/gcc-arm-none-eabi-10.3-2021.07/bin/../lib/gcc/arm-none-eabi/10.3.1/../../../../arm-none-eabi/lib/thumb/v7e-m/nofp/libnosys.a(_exit.o)
                              /usr/gcc-arm-none-eabi-10.3-2021.07/bin/../lib/gcc/arm-none-eabi/10.3.1/../../../../arm-none-eabi/lib/thumb/v7e-m/nofp/libg_nano.a(lib_a-exit.o) (_exit)
/usr/gcc-arm-none-eabi-10.3-2021.07/bin/../lib/gcc/arm-none-eabi/10.3.1/../../../../arm-none-eabi/lib/thumb/v7e-m/nofp/libm.a(lib_a-s_cos.o)
                              CMakeFiles/loko_app.dir/Middlewares/Third_Party/lwgps/lwgps.c.obj (symbol from plugin) (cos)
/usr/gcc-arm-none-eabi-10.3-2021.07/bin/../lib/gcc/arm-none-eabi/10.3.1/../../../../arm-none-eabi/lib/thumb/v7e-m/nofp/libm.a(lib_a-s_floor.o)
                              CMakeFiles/loko_app.dir/Middlewares/Third_Party/LoRaWAN/Mac/Region/RegionCommon.c.obj (symbol from plugin) (floor)
/usr/gcc-arm-none-eabi-10.3-2021.07/bin/../lib/gcc/arm-none-eabi/10.3.1/../../../../arm-none-eabi/lib/thumb/v7e-m/nofp/libm.a(lib_a-s_round.o)
                              CMakeFiles/loko_app.dir/Core/Src/application.c.obj (symbol from plugin) (round)
/usr/gcc-arm-none-eabi-10.3-2021.07/bin/../lib/gcc/arm-none-eabi/10.3.1/../../../../arm-none-eabi/lib/thumb/v7e-m/nofp/libm.a(lib_a-s_sin.o)
                              CMakeFiles/loko_app.dir/Middlewares/Third_Party/lwgps/lwgps.c.obj (symbol from plugin) (sin)
/usr/gcc-arm-none-eabi-10.3-2021.07/bin/../lib/gcc/arm-none-eabi/10.3.1/../../../../arm-none-eabi/lib/thumb/v7e-m/nofp/libm.a(lib_a-w_atan2.o)
                              CMakeFiles/loko_app.dir/Middlewares/Third_Party/lwgps/lwgps.c.obj (symbol from plugin) (atan2)
/usr/gcc-arm-none-eabi-10.3-2021.07/bin/../lib/gcc/arm-none-eabi/10.3.1/../../../../arm-none-eabi/lib/thumb/v7e-m/nofp/libm.a(lib_a-w_sqrt.o)
                              CMakeFiles/loko_app.dir/Middlewares/Third_Party/lwgps/lwgps.c.obj (symbol from plugin) (sqrt)
/usr/gcc-arm-none-eabi-10.3-2021.07/bin/../lib/gcc/arm-none-eabi/10.3.1/../../../../arm-none-eabi/lib/thumb/v7e-m/nofp/libm.a(lib_a-e_atan2.o)
                              /usr/gcc-arm-none-eabi-10.3-2021.07/bin/../lib/gcc/arm-none-eabi/10.3.1/../../../../arm-none-eabi/lib/thumb/v7e-m/nofp/libm.a(lib_a-w_atan2.o) (__ieee754_atan2)
/usr/gcc-arm-none-eabi-10.3-2021.07/bin/../lib/gcc/arm-none-eabi/10.3.1/../../../../arm-none-eabi/lib/thumb/v7e-m/nofp/libm.a(lib_a-e_rem_pio2.o)
                              /usr/gcc-arm-none-eabi-10.3-2021.07/bin/../lib/gcc/arm-none-eabi/10.3.1/../../../../arm-none-eabi/lib/thumb/v7e-m/nofp/libm.a(lib_a-s_cos.o) (__ieee754_rem_pio2)
/usr/gcc-arm-none-eabi-10.3-2021.07/bin/../lib/gcc/arm-none-eabi/10.3.1/../../../../arm-none-eabi/lib/thumb/v7e-m/nofp/libm.a(lib_a-e_sqrt.o)
                              /usr/gcc-arm-none-eabi-10.3-2021.07/bin/../lib/gcc/arm-none-eabi/10.3.1/../../../../arm-none-eabi/lib/thumb/v7e-m/nofp/libm.a(lib_a-w_sqrt.o) (__ieee754_sqrt)
/usr/gcc-arm-none-eabi-10.3-2021.07/bin/../lib/gcc/arm-none-eabi/10.3.1/../../../../arm-none-eabi/lib/thumb/v7e-m/nofp/libm.a(lib_a-k_cos.o)
                              /usr/gcc-arm-none-eabi-10.3-2021.07/bin/../lib/gcc/arm-none-eabi/10.3.1/../../../../arm-none-eabi/lib/thumb/v7e-m/nofp/libm.a(lib_a-s_cos.o) (__kernel_cos)
/usr/gcc-arm-none-eabi-10.3-2021.07/bin/../lib/gcc/arm-none-eabi/10.3.1/../../../../arm-none-eabi/lib/thumb/v7e-m/nofp/libm.a(lib_a-k_rem_pio2.o)
                              /usr/gcc-arm-none-eabi-10.3-2021.07/bin/../lib/gcc/arm-none-eabi/10.3.1/../../../../arm-none-eabi/lib/thumb/v7e-m/nofp/libm.a(lib_a-e_rem_pio2.o) (__kernel_rem_pio2)
/usr/gcc-arm-none-eabi-10.3-2021.07/bin/../lib/gcc/arm-none-eabi/10.3.1/../../../../arm-none-eabi/lib/thumb/v7e-m/nofp/libm.a(lib_a-k_sin.o)
                              /usr/gcc-arm-none-eabi-10.3-2021.07/bin/../lib/gcc/arm-none-eabi/10.3.1/../../../../arm-none-eabi/lib/thumb/v7e-m/nofp/libm.a(lib_a-s_cos.o) (__kernel_sin)
/usr/gcc-arm-none-eabi-10.3-2021.07/bin/../lib/gcc/arm-none-eabi/10.3.1/../../../../arm-none-eabi/lib/thumb/v7e-m/nofp/libm.a(lib_a-s_atan.o)
                              /usr/gcc-arm-none-eabi-10.3-2021.07/bin/../lib/gcc/arm-none-eabi/10.3.1/../../../../arm-none-eabi/lib/thumb/v7e-m/nofp/libm.a(lib_a-e_atan2.o) (atan)
/usr/gcc-arm-none-eabi-10.3-2021.07/bin/../lib/gcc/arm-none-eabi/10.3.1/../../../../arm-none-eabi/lib/thumb/v7e-m/nofp/libm.a(lib_a-s_fabs.o)
                              /usr/gcc-arm-none-eabi-10.3-2021.07/bin/../lib/gcc/arm-none-eabi/10.3.1/../../../../arm-none-eabi/lib/thumb/v7e-m/nofp/libm.a(lib_a-e_atan2.o) (fabs)
/usr/gcc-arm-none-eabi-10.3-2021.07/bin/../lib/gcc/arm-none-eabi/10.3.1/../../../../arm-none-eabi/lib/thumb/v7e-m/nofp/libm.a(lib_a-s_scalbn.o)
                              /usr/gcc-arm-none-eabi-10.3-2021.07/bin/../lib/gcc/arm-none-eabi/10.3.1/../../../../arm-none-eabi/lib/thumb/v7e-m/nofp/libm.a(lib_a-k_rem_pio2.o) (scalbn)
/usr/gcc-arm-none-eabi-10.3-2021.07/bin/../lib/gcc/arm-none-eabi/10.3.1/thumb/v7e-m/nofp/libgcc.a(_arm_mulsf3.o)
                              /tmp/loko_app.yhd4Rs.ltrans0.ltrans.o (__aeabi_fmul)
/usr/gcc-arm-none-eabi-10.3-2021.07/bin/../lib/gcc/arm-none-eabi/10.3.1/thumb/v7e-m/nofp/libgcc.a(_arm_addsubsf3.o)
                              /tmp/loko_app.yhd4Rs.ltrans1.ltrans.o (__aeabi_fsub)
/usr/gcc-arm-none-eabi-10.3-2021.07/bin/../lib/gcc/arm-none-eabi/10.3.1/thumb/v7e-m/nofp/libgcc.a(_arm_muldivsf3.o)
                              /tmp/loko_app.yhd4Rs.ltrans0.ltrans.o (__aeabi_fdiv)
/usr/gcc-arm-none-eabi-10.3-2021.07/bin/../lib/gcc/arm-none-eabi/10.3.1/thumb/v7e-m/nofp/libgcc.a(_arm_fixsfsi.o)
                              /tmp/loko_app.yhd4Rs.ltrans0.ltrans.o (__aeabi_f2iz)
/usr/gcc-arm-none-eabi-10.3-2021.07/bin/../lib/gcc/arm-none-eabi/10.3.1/thumb/v7e-m/nofp/libgcc.a(_arm_fixunssfsi.o)
                              /tmp/loko_app.yhd4Rs.ltrans0.ltrans.o (__aeabi_f2uiz)
/usr/gcc-arm-none-eabi-10.3-2021.07/bin/../lib/gcc/arm-none-eabi/10.3.1/thumb/v7e-m/nofp/libgcc.a(_aeabi_ldivmod.o)
                              /tmp/loko_app.yhd4Rs.ltrans0.ltrans.o (__aeabi_ldivmod)
/usr/gcc-arm-none-eabi-10.3-2021.07/bin/../lib/gcc/arm-none-eabi/10.3.1/../../../../arm-none-eabi/lib/thumb/v7e-m/nofp/libg_nano.a(lib_a-memcmp.o)
                              /tmp/loko_app.yhd4Rs.ltrans0.ltrans.o (memcmp)
/usr/gcc-arm-none-eabi-10.3-2021.07/bin/../lib/gcc/arm-none-eabi/10.3.1/../../../../arm-none-eabi/lib/thumb/v7e-m/nofp/libg_nano.a(lib_a-snprintf.o)
                              /tmp/loko_app.yhd4Rs.ltrans0.ltrans.o (snprintf)
/usr/gcc-arm-none-eabi-10.3-2021.07/bin/../lib/gcc/arm-none-eabi/10.3.1/../../../../arm-none-eabi/lib/thumb/v7e-m/nofp/libg_nano.a(lib_a-strncasecmp.o)
                              /tmp/loko_app.yhd4Rs.ltrans0.ltrans.o (strncasecmp)
/usr/gcc-arm-none-eabi-10.3-2021.07/bin/../lib/gcc/arm-none-eabi/10.3.1/../../../../arm-none-eabi/lib/thumb/v7e-m/nofp/libg_nano.a(lib_a-vsnprintf.o)
                              /tmp/loko_app.yhd4Rs.ltrans0.ltrans.o (vsnprintf)
/usr/gcc-arm-none-eabi-10.3-2021.07/bin/../lib/gcc/arm-none-eabi/10.3.1/../../../../arm-none-eabi/lib/thumb/v7e-m/nofp/libg_nano.a(lib_a-nano-svfprintf.o)
                              /usr/gcc-arm-none-eabi-10.3-2021.07/bin/../lib/gcc/arm-none-eabi/10.3.1/../../../../arm-none-eabi/lib/thumb/v7e-m/nofp/libg_nano.a(lib_a-snprintf.o) (_svfprintf_r)

Discarded input sections

 .text          0x0000000000000000        0x0 /usr/gcc-arm-none-eabi-10.3-2021.07/bin/../lib/gcc/arm-none-eabi/10.3.1/thumb/v7e-m/nofp/crti.o
 .data          0x0000000000000000        0x0 /usr/gcc-arm-none-eabi-10.3-2021.07/bin/../lib/gcc/arm-none-eabi/10.3.1/thumb/v7e-m/nofp/crti.o
 .bss           0x0000000000000000        0x0 /usr/gcc-arm-none-eabi-10.3-2021.07/bin/../lib/gcc/arm-none-eabi/10.3.1/thumb/v7e-m/nofp/crti.o
 .data          0x0000000000000000        0x4 /usr/gcc-arm-none-eabi-10.3-2021.07/bin/../lib/gcc/arm-none-eabi/10.3.1/thumb/v7e-m/nofp/crtbegin.o
 .rodata        0x0000000000000000       0x24 /usr/gcc-arm-none-eabi-10.3-2021.07/bin/../lib/gcc/arm-none-eabi/10.3.1/thumb/v7e-m/nofp/crtbegin.o
 .text          0x0000000000000000       0x7c /usr/gcc-arm-none-eabi-10.3-2021.07/bin/../lib/gcc/arm-none-eabi/10.3.1/../../../../arm-none-eabi/lib/thumb/v7e-m/nofp/crt0.o
 .data          0x0000000000000000        0x0 /usr/gcc-arm-none-eabi-10.3-2021.07/bin/../lib/gcc/arm-none-eabi/10.3.1/../../../../arm-none-eabi/lib/thumb/v7e-m/nofp/crt0.o
 .bss           0x0000000000000000        0x0 /usr/gcc-arm-none-eabi-10.3-2021.07/bin/../lib/gcc/arm-none-eabi/10.3.1/../../../../arm-none-eabi/lib/thumb/v7e-m/nofp/crt0.o
 .ARM.extab     0x0000000000000000        0x0 /usr/gcc-arm-none-eabi-10.3-2021.07/bin/../lib/gcc/arm-none-eabi/10.3.1/../../../../arm-none-eabi/lib/thumb/v7e-m/nofp/crt0.o
 .ARM.exidx     0x0000000000000000       0x10 /usr/gcc-arm-none-eabi-10.3-2021.07/bin/../lib/gcc/arm-none-eabi/10.3.1/../../../../arm-none-eabi/lib/thumb/v7e-m/nofp/crt0.o
 .ARM.attributes
                0x0000000000000000       0x1c /usr/gcc-arm-none-eabi-10.3-2021.07/bin/../lib/gcc/arm-none-eabi/10.3.1/../../../../arm-none-eabi/lib/thumb/v7e-m/nofp/crt0.o
 .text          0x0000000000000000        0x0 /tmp/loko_app.yhd4Rs.ltrans0.ltrans.o
 .data          0x0000000000000000        0x0 /tmp/loko_app.yhd4Rs.ltrans0.ltrans.o
 .bss           0x0000000000000000        0x0 /tmp/loko_app.yhd4Rs.ltrans0.ltrans.o
 .rodata.Radio  0x0000000000000000       0x84 /tmp/loko_app.yhd4Rs.ltrans0.ltrans.o
 .rodata.UTIL_SYSTIMDriver
                0x0000000000000000       0x14 /tmp/loko_app.yhd4Rs.ltrans0.ltrans.o
 .rodata.UTIL_TimerDriver
                0x0000000000000000       0x2c /tmp/loko_app.yhd4Rs.ltrans0.ltrans.o
 .text          0x0000000000000000        0x0 /tmp/loko_app.yhd4Rs.ltrans1.ltrans.o
 .data          0x0000000000000000        0x0 /tmp/loko_app.yhd4Rs.ltrans1.ltrans.o
 .bss           0x0000000000000000        0x0 /tmp/loko_app.yhd4Rs.ltrans1.ltrans.o
 .text.enqueue8
                0x0000000000000000        0x6 /tmp/loko_app.yhd4Rs.ltrans1.ltrans.o
 .text.dequeue8
                0x0000000000000000        0x6 /tmp/loko_app.yhd4Rs.ltrans1.ltrans.o
 .text.RFW_TransmitLongPacket
                0x0000000000000000        0x6 /tmp/loko_app.yhd4Rs.ltrans1.ltrans.o
 .text.RFW_ReceiveLongPacket
                0x0000000000000000        0x6 /tmp/loko_app.yhd4Rs.ltrans1.ltrans.o
 .text.RadioReadRegisters.lto_priv.0
                0x0000000000000000        0xc /tmp/loko_app.yhd4Rs.ltrans1.ltrans.o
 .text.RadioRead.lto_priv.0
                0x0000000000000000        0x4 /tmp/loko_app.yhd4Rs.ltrans1.ltrans.o
 .text.RadioWrite.lto_priv.0
                0x0000000000000000        0x4 /tmp/loko_app.yhd4Rs.ltrans1.ltrans.o
 .text.RadioTxPrbs.lto_priv.0
                0x0000000000000000       0x34 /tmp/loko_app.yhd4Rs.ltrans1.ltrans.o
 .text.SUBGRF_SetRxBoosted
                0x0000000000000000       0x38 /tmp/loko_app.yhd4Rs.ltrans1.ltrans.o
 .text.RadioRxBoosted.lto_priv.0
                0x0000000000000000       0x48 /tmp/loko_app.yhd4Rs.ltrans1.ltrans.o
 .text.RadioSetRxDutyCycle.lto_priv.0
                0x0000000000000000       0x5c /tmp/loko_app.yhd4Rs.ltrans1.ltrans.o
 .text.RadioStartCad.lto_priv.0
                0x0000000000000000       0x28 /tmp/loko_app.yhd4Rs.ltrans1.ltrans.o
 .text.RadioTxCw.lto_priv.0
                0x0000000000000000       0x1a /tmp/loko_app.yhd4Rs.ltrans1.ltrans.o
 .text.RadioRssi.lto_priv.0
                0x0000000000000000       0x1a /tmp/loko_app.yhd4Rs.ltrans1.ltrans.o
 .text.RadioWriteRegisters.lto_priv.0
                0x0000000000000000        0x4 /tmp/loko_app.yhd4Rs.ltrans1.ltrans.o
 .text.RadioSetRxGenericConfig.lto_priv.0
                0x0000000000000000      0x1a4 /tmp/loko_app.yhd4Rs.ltrans1.ltrans.o
 .text.RadioSetTxGenericConfig.lto_priv.0
                0x0000000000000000      0x200 /tmp/loko_app.yhd4Rs.ltrans1.ltrans.o
 .rodata.uwTickFreq
                0x0000000000000000        0x1 /tmp/loko_app.yhd4Rs.ltrans1.ltrans.o
 .text          0x0000000000000000        0x0 /tmp/loko_app.yhd4Rs.ltrans2.ltrans.o
 .data          0x0000000000000000        0x0 /tmp/loko_app.yhd4Rs.ltrans2.ltrans.o
 .bss           0x0000000000000000        0x0 /tmp/loko_app.yhd4Rs.ltrans2.ltrans.o
 .comment       0x0000000000000000       0x4a /tmp/ccb1mE2G.debug.temp.o
 .comment       0x0000000000000000       0x4a /tmp/ccvtyvG1.debug.temp.o
 .comment       0x0000000000000000       0x4a /tmp/ccf4nu6k.debug.temp.o
 .comment       0x0000000000000000       0x4a /tmp/ccnVlKlu.debug.temp.o
 .comment       0x0000000000000000       0x4a /tmp/ccv9rn0j.debug.temp.o
 .comment       0x0000000000000000       0x4a /tmp/cceua3JK.debug.temp.o
 .comment       0x0000000000000000       0x4a /tmp/cc8Bwa48.debug.temp.o
 .comment       0x0000000000000000       0x4a /tmp/ccGbhCYF.debug.temp.o
 .comment       0x0000000000000000       0x4a /tmp/ccw5WUJ6.debug.temp.o
 .comment       0x0000000000000000       0x4a /tmp/ccKx6cKM.debug.temp.o
 .comment       0x0000000000000000       0x4a /tmp/cc9VkKNH.debug.temp.o
 .comment       0x0000000000000000       0x4a /tmp/ccqcO2kI.debug.temp.o
 .comment       0x0000000000000000       0x4a /tmp/ccnpwgnj.debug.temp.o
 .comment       0x0000000000000000       0x4a /tmp/cc9Mtpmj.debug.temp.o
 .comment       0x0000000000000000       0x4a /tmp/cc7IqFkN.debug.temp.o
 .comment       0x0000000000000000       0x4a /tmp/cc2bwXrf.debug.temp.o
 .comment       0x0000000000000000       0x4a /tmp/ccS0FgKV.debug.temp.o
 .comment       0x0000000000000000       0x4a /tmp/ccW0RuGS.debug.temp.o
 .comment       0x0000000000000000       0x4a /tmp/ccYRGota.debug.temp.o
 .comment       0x0000000000000000       0x4a /tmp/cchfKlvi.debug.temp.o
 .comment       0x0000000000000000       0x4a /tmp/ccwatcr1.debug.temp.o
 .comment       0x0000000000000000       0x4a /tmp/cc8WDkSq.debug.temp.o
 .comment       0x0000000000000000       0x4a /tmp/ccwfa9rK.debug.temp.o
 .comment       0x0000000000000000       0x4a /tmp/ccOP75ae.debug.temp.o
 .comment       0x0000000000000000       0x4a /tmp/ccGL35ux.debug.temp.o
 .comment       0x0000000000000000       0x4a /tmp/ccYatsSs.debug.temp.o
 .comment       0x0000000000000000       0x4a /tmp/ccycYC5i.debug.temp.o
 .comment       0x0000000000000000       0x4a /tmp/ccsTJXcn.debug.temp.o
 .comment       0x0000000000000000       0x4a /tmp/ccASDsCr.debug.temp.o
 .comment       0x0000000000000000       0x4a /tmp/cc0QnPAE.debug.temp.o
 .comment       0x0000000000000000       0x4a /tmp/ccqWapzz.debug.temp.o
 .comment       0x0000000000000000       0x4a /tmp/ccIPOR02.debug.temp.o
 .comment       0x0000000000000000       0x4a /tmp/ccuKgu3r.debug.temp.o
 .comment       0x0000000000000000       0x4a /tmp/ccS4GNtn.debug.temp.o
 .comment       0x0000000000000000       0x4a /tmp/ccL8cbEX.debug.temp.o
 .comment       0x0000000000000000       0x4a /tmp/ccjEhC0X.debug.temp.o
 .comment       0x0000000000000000       0x4a /tmp/ccSWKV5l.debug.temp.o
 .comment       0x0000000000000000       0x4a /tmp/ccBbGa7S.debug.temp.o
 .comment       0x0000000000000000       0x4a /tmp/cc0o2vl9.debug.temp.o
 .comment       0x0000000000000000       0x4a /tmp/ccI6Ji0y.debug.temp.o
 .comment       0x0000000000000000       0x4a /tmp/ccWgRVfz.debug.temp.o
 .comment       0x0000000000000000       0x4a /tmp/ccZmoG4K.debug.temp.o
 .comment       0x0000000000000000       0x4a /tmp/cc9GxKl9.debug.temp.o
 .comment       0x0000000000000000       0x4a /tmp/ccGkZ2CD.debug.temp.o
 .comment       0x0000000000000000       0x4a /tmp/ccZJSQoQ.debug.temp.o
 .comment       0x0000000000000000       0x4a /tmp/ccXaRzWs.debug.temp.o
 .comment       0x0000000000000000       0x4a /tmp/ccDWjkjd.debug.temp.o
 .comment       0x0000000000000000       0x4a /tmp/ccQ0LfzP.debug.temp.o
 .comment       0x0000000000000000       0x4a /tmp/cchl7RkN.debug.temp.o
 .comment       0x0000000000000000       0x4a /tmp/cc6Y0I9l.debug.temp.o
 .comment       0x0000000000000000       0x4a /tmp/ccQYZVmC.debug.temp.o
 .comment       0x0000000000000000       0x4a /tmp/ccEsXZVT.debug.temp.o
 .comment       0x0000000000000000       0x4a /tmp/cc5W3YOV.debug.temp.o
 .comment       0x0000000000000000       0x4a /tmp/ccxQGTac.debug.temp.o
 .comment       0x0000000000000000       0x4a /tmp/ccX9xCKb.debug.temp.o
 .comment       0x0000000000000000       0x4a /tmp/ccmk0lFw.debug.temp.o
 .comment       0x0000000000000000       0x4a /tmp/ccIySCdd.debug.temp.o
 .comment       0x0000000000000000       0x4a /tmp/ccpSuKeh.debug.temp.o
 .comment       0x0000000000000000       0x4a /tmp/ccHphSDI.debug.temp.o
 .comment       0x0000000000000000       0x4a /tmp/ccitYPK1.debug.temp.o
 .comment       0x0000000000000000       0x4a /tmp/cccPgEab.debug.temp.o
 .comment       0x0000000000000000       0x4a /tmp/ccP34yzr.debug.temp.o
 .comment       0x0000000000000000       0x4a /tmp/cc9MAM8O.debug.temp.o
 .comment       0x0000000000000000       0x4a /tmp/cc0EHvkk.debug.temp.o
 .comment       0x0000000000000000       0x4a /tmp/ccSDVopy.debug.temp.o
 .comment       0x0000000000000000       0x4a /tmp/cc49PgLx.debug.temp.o
 .comment       0x0000000000000000       0x4a /tmp/ccVIWmL4.debug.temp.o
 .comment       0x0000000000000000       0x4a /tmp/ccaxJaIv.debug.temp.o
 .comment       0x0000000000000000       0x4a /tmp/cc2OSRjd.debug.temp.o
 .comment       0x0000000000000000       0x4a /tmp/cclhSWJ0.debug.temp.o
 .comment       0x0000000000000000       0x4a /tmp/cciHJXIo.debug.temp.o
 .comment       0x0000000000000000       0x4a /tmp/ccvEw285.debug.temp.o
 .comment       0x0000000000000000       0x4a /tmp/cc4LIk0Y.debug.temp.o
 .comment       0x0000000000000000       0x4a /tmp/ccykgIKk.debug.temp.o
 .comment       0x0000000000000000       0x4a /tmp/ccMcs8w0.debug.temp.o
 .comment       0x0000000000000000       0x4a /tmp/ccEuRAJG.debug.temp.o
 .comment       0x0000000000000000       0x4a /tmp/ccDl5sW9.debug.temp.o
 .comment       0x0000000000000000       0x4a /tmp/cc9ZO3pm.debug.temp.o
 .comment       0x0000000000000000       0x4a /tmp/ccEEVYed.debug.temp.o
 .comment       0x0000000000000000       0x4a /tmp/ccco4HDN.debug.temp.o
 .comment       0x0000000000000000       0x4a /tmp/ccTn9IA9.debug.temp.o
 .comment       0x0000000000000000       0x4a /tmp/ccsoTJvH.debug.temp.o
 .comment       0x0000000000000000       0x4a /tmp/ccXBoalU.debug.temp.o
 .comment       0x0000000000000000       0x4a /tmp/ccUegmPF.debug.temp.o
 .debug_info    0x0000000000000000      0x9f6 /tmp/cc1f2pbn.debug.temp.o
 .debug_abbrev  0x0000000000000000      0x1d0 /tmp/cc1f2pbn.debug.temp.o
 .debug_line    0x0000000000000000      0x22a /tmp/cc1f2pbn.debug.temp.o
 .debug_str     0x0000000000000000      0xa29 /tmp/cc1f2pbn.debug.temp.o
 .comment       0x0000000000000000       0x4a /tmp/cc1f2pbn.debug.temp.o
 .text          0x0000000000000000       0x14 out/libbsp_loko_app.a(startup_stm32wle5jcix.s.obj)
 .data          0x0000000000000000        0x0 out/libbsp_loko_app.a(startup_stm32wle5jcix.s.obj)
 .bss           0x0000000000000000        0x0 out/libbsp_loko_app.a(startup_stm32wle5jcix.s.obj)
 .text.Default_Handler
                0x0000000000000000        0x2 out/libbsp_loko_app.a(startup_stm32wle5jcix.s.obj)
 .text          0x0000000000000000        0x0 /usr/gcc-arm-none-eabi-10.3-2021.07/bin/../lib/gcc/arm-none-eabi/10.3.1/../../../../arm-none-eabi/lib/thumb/v7e-m/nofp/libg_nano.a(lib_a-assert.o)
 .data          0x0000000000000000        0x0 /usr/gcc-arm-none-eabi-10.3-2021.07/bin/../lib/gcc/arm-none-eabi/10.3.1/../../../../arm-none-eabi/lib/thumb/v7e-m/nofp/libg_nano.a(lib_a-assert.o)
 .bss           0x0000000000000000        0x0 /usr/gcc-arm-none-eabi-10.3-2021.07/bin/../lib/gcc/arm-none-eabi/10.3.1/../../../../arm-none-eabi/lib/thumb/v7e-m/nofp/libg_nano.a(lib_a-assert.o)
 .text.__assert
                0x0000000000000000        0xa /usr/gcc-arm-none-eabi-10.3-2021.07/bin/../lib/gcc/arm-none-eabi/10.3.1/../../../../arm-none-eabi/lib/thumb/v7e-m/nofp/libg_nano.a(lib_a-assert.o)
 .text          0x0000000000000000        0x0 /usr/gcc-arm-none-eabi-10.3-2021.07/bin/../lib/gcc/arm-none-eabi/10.3.1/../../../../arm-none-eabi/lib/thumb/v7e-m/nofp/libg_nano.a(lib_a-ctype_.o)
 .data          0x0000000000000000        0x0 /usr/gcc-arm-none-eabi-10.3-2021.07/bin/../lib/gcc/arm-none-eabi/10.3.1/../../../../arm-none-eabi/lib/thumb/v7e-m/nofp/libg_nano.a(lib_a-ctype_.o)
 .bss           0x0000000000000000        0x0 /usr/gcc-arm-none-eabi-10.3-2021.07/bin/../lib/gcc/arm-none-eabi/10.3.1/../../../../arm-none-eabi/lib/thumb/v7e-m/nofp/libg_nano.a(lib_a-ctype_.o)
 .text          0x0000000000000000        0x0 /usr/gcc-arm-none-eabi-10.3-2021.07/bin/../lib/gcc/arm-none-eabi/10.3.1/../../../../arm-none-eabi/lib/thumb/v7e-m/nofp/libg_nano.a(lib_a-errno.o)
 .data          0x0000000000000000        0x0 /usr/gcc-arm-none-eabi-10.3-2021.07/bin/../lib/gcc/arm-none-eabi/10.3.1/../../../../arm-none-eabi/lib/thumb/v7e-m/nofp/libg_nano.a(lib_a-errno.o)
 .bss           0x0000000000000000        0x0 /usr/gcc-arm-none-eabi-10.3-2021.07/bin/../lib/gcc/arm-none-eabi/10.3.1/../../../../arm-none-eabi/lib/thumb/v7e-m/nofp/libg_nano.a(lib_a-errno.o)
 .text          0x0000000000000000        0x0 /usr/gcc-arm-none-eabi-10.3-2021.07/bin/../lib/gcc/arm-none-eabi/10.3.1/../../../../arm-none-eabi/lib/thumb/v7e-m/nofp/libg_nano.a(lib_a-exit.o)
 .data          0x0000000000000000        0x0 /usr/gcc-arm-none-eabi-10.3-2021.07/bin/../lib/gcc/arm-none-eabi/10.3.1/../../../../arm-none-eabi/lib/thumb/v7e-m/nofp/libg_nano.a(lib_a-exit.o)
 .bss           0x0000000000000000        0x0 /usr/gcc-arm-none-eabi-10.3-2021.07/bin/../lib/gcc/arm-none-eabi/10.3.1/../../../../arm-none-eabi/lib/thumb/v7e-m/nofp/libg_nano.a(lib_a-exit.o)
 .text.exit     0x0000000000000000       0x28 /usr/gcc-arm-none-eabi-10.3-2021.07/bin/../lib/gcc/arm-none-eabi/10.3.1/../../../../arm-none-eabi/lib/thumb/v7e-m/nofp/libg_nano.a(lib_a-exit.o)
 .debug_frame   0x0000000000000000       0x28 /usr/gcc-arm-none-eabi-10.3-2021.07/bin/../lib/gcc/arm-none-eabi/10.3.1/../../../../arm-none-eabi/lib/thumb/v7e-m/nofp/libg_nano.a(lib_a-exit.o)
 .ARM.attributes
                0x0000000000000000       0x2e /usr/gcc-arm-none-eabi-10.3-2021.07/bin/../lib/gcc/arm-none-eabi/10.3.1/../../../../arm-none-eabi/lib/thumb/v7e-m/nofp/libg_nano.a(lib_a-exit.o)
 .text          0x0000000000000000        0x0 /usr/gcc-arm-none-eabi-10.3-2021.07/bin/../lib/gcc/arm-none-eabi/10.3.1/../../../../arm-none-eabi/lib/thumb/v7e-m/nofp/libg_nano.a(lib_a-fprintf.o)
 .data          0x0000000000000000        0x0 /usr/gcc-arm-none-eabi-10.3-2021.07/bin/../lib/gcc/arm-none-eabi/10.3.1/../../../../arm-none-eabi/lib/thumb/v7e-m/nofp/libg_nano.a(lib_a-fprintf.o)
 .bss           0x0000000000000000        0x0 /usr/gcc-arm-none-eabi-10.3-2021.07/bin/../lib/gcc/arm-none-eabi/10.3.1/../../../../arm-none-eabi/lib/thumb/v7e-m/nofp/libg_nano.a(lib_a-fprintf.o)
 .text._fprintf_r
                0x0000000000000000       0x1a /usr/gcc-arm-none-eabi-10.3-2021.07/bin/../lib/gcc/arm-none-eabi/10.3.1/../../../../arm-none-eabi/lib/thumb/v7e-m/nofp/libg_nano.a(lib_a-fprintf.o)
 .text          0x0000000000000000        0x0 /usr/gcc-arm-none-eabi-10.3-2021.07/bin/../lib/gcc/arm-none-eabi/10.3.1/../../../../arm-none-eabi/lib/thumb/v7e-m/nofp/libg_nano.a(lib_a-impure.o)
 .data          0x0000000000000000        0x0 /usr/gcc-arm-none-eabi-10.3-2021.07/bin/../lib/gcc/arm-none-eabi/10.3.1/../../../../arm-none-eabi/lib/thumb/v7e-m/nofp/libg_nano.a(lib_a-impure.o)
 .bss           0x0000000000000000        0x0 /usr/gcc-arm-none-eabi-10.3-2021.07/bin/../lib/gcc/arm-none-eabi/10.3.1/../../../../arm-none-eabi/lib/thumb/v7e-m/nofp/libg_nano.a(lib_a-impure.o)
 .text          0x0000000000000000        0x0 /usr/gcc-arm-none-eabi-10.3-2021.07/bin/../lib/gcc/arm-none-eabi/10.3.1/../../../../arm-none-eabi/lib/thumb/v7e-m/nofp/libg_nano.a(lib_a-init.o)
 .data          0x0000000000000000        0x0 /usr/gcc-arm-none-eabi-10.3-2021.07/bin/../lib/gcc/arm-none-eabi/10.3.1/../../../../arm-none-eabi/lib/thumb/v7e-m/nofp/libg_nano.a(lib_a-init.o)
 .bss           0x0000000000000000        0x0 /usr/gcc-arm-none-eabi-10.3-2021.07/bin/../lib/gcc/arm-none-eabi/10.3.1/../../../../arm-none-eabi/lib/thumb/v7e-m/nofp/libg_nano.a(lib_a-init.o)
 .text          0x0000000000000000        0x0 /usr/gcc-arm-none-eabi-10.3-2021.07/bin/../lib/gcc/arm-none-eabi/10.3.1/../../../../arm-none-eabi/lib/thumb/v7e-m/nofp/libg_nano.a(lib_a-memset.o)
 .data          0x0000000000000000        0x0 /usr/gcc-arm-none-eabi-10.3-2021.07/bin/../lib/gcc/arm-none-eabi/10.3.1/../../../../arm-none-eabi/lib/thumb/v7e-m/nofp/libg_nano.a(lib_a-memset.o)
 .bss           0x0000000000000000        0x0 /usr/gcc-arm-none-eabi-10.3-2021.07/bin/../lib/gcc/arm-none-eabi/10.3.1/../../../../arm-none-eabi/lib/thumb/v7e-m/nofp/libg_nano.a(lib_a-memset.o)
 .text          0x0000000000000000        0x0 /usr/gcc-arm-none-eabi-10.3-2021.07/bin/../lib/gcc/arm-none-eabi/10.3.1/../../../../arm-none-eabi/lib/thumb/v7e-m/nofp/libg_nano.a(lib_a-nano-vfprintf.o)
 .data          0x0000000000000000        0x0 /usr/gcc-arm-none-eabi-10.3-2021.07/bin/../lib/gcc/arm-none-eabi/10.3.1/../../../../arm-none-eabi/lib/thumb/v7e-m/nofp/libg_nano.a(lib_a-nano-vfprintf.o)
 .bss           0x0000000000000000        0x0 /usr/gcc-arm-none-eabi-10.3-2021.07/bin/../lib/gcc/arm-none-eabi/10.3.1/../../../../arm-none-eabi/lib/thumb/v7e-m/nofp/libg_nano.a(lib_a-nano-vfprintf.o)
 .text.__sprint_r
                0x0000000000000000       0x1a /usr/gcc-arm-none-eabi-10.3-2021.07/bin/../lib/gcc/arm-none-eabi/10.3.1/../../../../arm-none-eabi/lib/thumb/v7e-m/nofp/libg_nano.a(lib_a-nano-vfprintf.o)
 .text.vfprintf
                0x0000000000000000       0x14 /usr/gcc-arm-none-eabi-10.3-2021.07/bin/../lib/gcc/arm-none-eabi/10.3.1/../../../../arm-none-eabi/lib/thumb/v7e-m/nofp/libg_nano.a(lib_a-nano-vfprintf.o)
 .text          0x0000000000000000        0x0 /usr/gcc-arm-none-eabi-10.3-2021.07/bin/../lib/gcc/arm-none-eabi/10.3.1/../../../../arm-none-eabi/lib/thumb/v7e-m/nofp/libg_nano.a(lib_a-nano-vfprintf_float.o)
 .data          0x0000000000000000        0x0 /usr/gcc-arm-none-eabi-10.3-2021.07/bin/../lib/gcc/arm-none-eabi/10.3.1/../../../../arm-none-eabi/lib/thumb/v7e-m/nofp/libg_nano.a(lib_a-nano-vfprintf_float.o)
 .bss           0x0000000000000000        0x0 /usr/gcc-arm-none-eabi-10.3-2021.07/bin/../lib/gcc/arm-none-eabi/10.3.1/../../../../arm-none-eabi/lib/thumb/v7e-m/nofp/libg_nano.a(lib_a-nano-vfprintf_float.o)
 .text          0x0000000000000000        0x0 /usr/gcc-arm-none-eabi-10.3-2021.07/bin/../lib/gcc/arm-none-eabi/10.3.1/../../../../arm-none-eabi/lib/thumb/v7e-m/nofp/libg_nano.a(lib_a-nano-vfprintf_i.o)
 .data          0x0000000000000000        0x0 /usr/gcc-arm-none-eabi-10.3-2021.07/bin/../lib/gcc/arm-none-eabi/10.3.1/../../../../arm-none-eabi/lib/thumb/v7e-m/nofp/libg_nano.a(lib_a-nano-vfprintf_i.o)
 .bss           0x0000000000000000        0x0 /usr/gcc-arm-none-eabi-10.3-2021.07/bin/../lib/gcc/arm-none-eabi/10.3.1/../../../../arm-none-eabi/lib/thumb/v7e-m/nofp/libg_nano.a(lib_a-nano-vfprintf_i.o)
 .data          0x0000000000000000        0x0 /usr/gcc-arm-none-eabi-10.3-2021.07/bin/../lib/gcc/arm-none-eabi/10.3.1/../../../../arm-none-eabi/lib/thumb/v7e-m/nofp/libg_nano.a(lib_a-strlen.o)
 .bss           0x0000000000000000        0x0 /usr/gcc-arm-none-eabi-10.3-2021.07/bin/../lib/gcc/arm-none-eabi/10.3.1/../../../../arm-none-eabi/lib/thumb/v7e-m/nofp/libg_nano.a(lib_a-strlen.o)
 .text          0x0000000000000000        0x0 /usr/gcc-arm-none-eabi-10.3-2021.07/bin/../lib/gcc/arm-none-eabi/10.3.1/../../../../arm-none-eabi/lib/thumb/v7e-m/nofp/libg_nano.a(lib_a-strtod.o)
 .data          0x0000000000000000        0x0 /usr/gcc-arm-none-eabi-10.3-2021.07/bin/../lib/gcc/arm-none-eabi/10.3.1/../../../../arm-none-eabi/lib/thumb/v7e-m/nofp/libg_nano.a(lib_a-strtod.o)
 .bss           0x0000000000000000        0x0 /usr/gcc-arm-none-eabi-10.3-2021.07/bin/../lib/gcc/arm-none-eabi/10.3.1/../../../../arm-none-eabi/lib/thumb/v7e-m/nofp/libg_nano.a(lib_a-strtod.o)
 .text._strtod_r
                0x0000000000000000        0xc /usr/gcc-arm-none-eabi-10.3-2021.07/bin/../lib/gcc/arm-none-eabi/10.3.1/../../../../arm-none-eabi/lib/thumb/v7e-m/nofp/libg_nano.a(lib_a-strtod.o)
 .text.strtod_l
                0x0000000000000000       0x14 /usr/gcc-arm-none-eabi-10.3-2021.07/bin/../lib/gcc/arm-none-eabi/10.3.1/../../../../arm-none-eabi/lib/thumb/v7e-m/nofp/libg_nano.a(lib_a-strtod.o)
 .text.strtof_l
                0x0000000000000000       0xa0 /usr/gcc-arm-none-eabi-10.3-2021.07/bin/../lib/gcc/arm-none-eabi/10.3.1/../../../../arm-none-eabi/lib/thumb/v7e-m/nofp/libg_nano.a(lib_a-strtod.o)
 .text.strtof   0x0000000000000000       0xa4 /usr/gcc-arm-none-eabi-10.3-2021.07/bin/../lib/gcc/arm-none-eabi/10.3.1/../../../../arm-none-eabi/lib/thumb/v7e-m/nofp/libg_nano.a(lib_a-strtod.o)
 .text          0x0000000000000000        0x0 /usr/gcc-arm-none-eabi-10.3-2021.07/bin/../lib/gcc/arm-none-eabi/10.3.1/../../../../arm-none-eabi/lib/thumb/v7e-m/nofp/libg_nano.a(lib_a-strtoll.o)
 .data          0x0000000000000000        0x0 /usr/gcc-arm-none-eabi-10.3-2021.07/bin/../lib/gcc/arm-none-eabi/10.3.1/../../../../arm-none-eabi/lib/thumb/v7e-m/nofp/libg_nano.a(lib_a-strtoll.o)
 .bss           0x0000000000000000        0x0 /usr/gcc-arm-none-eabi-10.3-2021.07/bin/../lib/gcc/arm-none-eabi/10.3.1/../../../../arm-none-eabi/lib/thumb/v7e-m/nofp/libg_nano.a(lib_a-strtoll.o)
 .text._strtoll_r
                0x0000000000000000        0x4 /usr/gcc-arm-none-eabi-10.3-2021.07/bin/../lib/gcc/arm-none-eabi/10.3.1/../../../../arm-none-eabi/lib/thumb/v7e-m/nofp/libg_nano.a(lib_a-strtoll.o)
 .text.strtoll_l
                0x0000000000000000       0x14 /usr/gcc-arm-none-eabi-10.3-2021.07/bin/../lib/gcc/arm-none-eabi/10.3.1/../../../../arm-none-eabi/lib/thumb/v7e-m/nofp/libg_nano.a(lib_a-strtoll.o)
 .text          0x0000000000000000        0x0 /usr/gcc-arm-none-eabi-10.3-2021.07/bin/../lib/gcc/arm-none-eabi/10.3.1/../../../../arm-none-eabi/lib/thumb/v7e-m/nofp/libg_nano.a(lib_a-strtoull.o)
 .data          0x0000000000000000        0x0 /usr/gcc-arm-none-eabi-10.3-2021.07/bin/../lib/gcc/arm-none-eabi/10.3.1/../../../../arm-none-eabi/lib/thumb/v7e-m/nofp/libg_nano.a(lib_a-strtoull.o)
 .bss           0x0000000000000000        0x0 /usr/gcc-arm-none-eabi-10.3-2021.07/bin/../lib/gcc/arm-none-eabi/10.3.1/../../../../arm-none-eabi/lib/thumb/v7e-m/nofp/libg_nano.a(lib_a-strtoull.o)
 .text._strtoull_r
                0x0000000000000000        0x4 /usr/gcc-arm-none-eabi-10.3-2021.07/bin/../lib/gcc/arm-none-eabi/10.3.1/../../../../arm-none-eabi/lib/thumb/v7e-m/nofp/libg_nano.a(lib_a-strtoull.o)
 .text.strtoull_l
                0x0000000000000000       0x14 /usr/gcc-arm-none-eabi-10.3-2021.07/bin/../lib/gcc/arm-none-eabi/10.3.1/../../../../arm-none-eabi/lib/thumb/v7e-m/nofp/libg_nano.a(lib_a-strtoull.o)
 .text          0x0000000000000000        0x0 /usr/gcc-arm-none-eabi-10.3-2021.07/bin/../lib/gcc/arm-none-eabi/10.3.1/../../../../arm-none-eabi/lib/thumb/v7e-m/nofp/libg_nano.a(lib_a-wbuf.o)
 .data          0x0000000000000000        0x0 /usr/gcc-arm-none-eabi-10.3-2021.07/bin/../lib/gcc/arm-none-eabi/10.3.1/../../../../arm-none-eabi/lib/thumb/v7e-m/nofp/libg_nano.a(lib_a-wbuf.o)
 .bss           0x0000000000000000        0x0 /usr/gcc-arm-none-eabi-10.3-2021.07/bin/../lib/gcc/arm-none-eabi/10.3.1/../../../../arm-none-eabi/lib/thumb/v7e-m/nofp/libg_nano.a(lib_a-wbuf.o)
 .text.__swbuf  0x0000000000000000       0x10 /usr/gcc-arm-none-eabi-10.3-2021.07/bin/../lib/gcc/arm-none-eabi/10.3.1/../../../../arm-none-eabi/lib/thumb/v7e-m/nofp/libg_nano.a(lib_a-wbuf.o)
 .text          0x0000000000000000        0x0 /usr/gcc-arm-none-eabi-10.3-2021.07/bin/../lib/gcc/arm-none-eabi/10.3.1/../../../../arm-none-eabi/lib/thumb/v7e-m/nofp/libg_nano.a(lib_a-wsetup.o)
 .data          0x0000000000000000        0x0 /usr/gcc-arm-none-eabi-10.3-2021.07/bin/../lib/gcc/arm-none-eabi/10.3.1/../../../../arm-none-eabi/lib/thumb/v7e-m/nofp/libg_nano.a(lib_a-wsetup.o)
 .bss           0x0000000000000000        0x0 /usr/gcc-arm-none-eabi-10.3-2021.07/bin/../lib/gcc/arm-none-eabi/10.3.1/../../../../arm-none-eabi/lib/thumb/v7e-m/nofp/libg_nano.a(lib_a-wsetup.o)
 .text          0x0000000000000000        0x0 /usr/gcc-arm-none-eabi-10.3-2021.07/bin/../lib/gcc/arm-none-eabi/10.3.1/../../../../arm-none-eabi/lib/thumb/v7e-m/nofp/libg_nano.a(lib_a-abort.o)
 .data          0x0000000000000000        0x0 /usr/gcc-arm-none-eabi-10.3-2021.07/bin/../lib/gcc/arm-none-eabi/10.3.1/../../../../arm-none-eabi/lib/thumb/v7e-m/nofp/libg_nano.a(lib_a-abort.o)
 .bss           0x0000000000000000        0x0 /usr/gcc-arm-none-eabi-10.3-2021.07/bin/../lib/gcc/arm-none-eabi/10.3.1/../../../../arm-none-eabi/lib/thumb/v7e-m/nofp/libg_nano.a(lib_a-abort.o)
 .text          0x0000000000000000        0x0 /usr/gcc-arm-none-eabi-10.3-2021.07/bin/../lib/gcc/arm-none-eabi/10.3.1/../../../../arm-none-eabi/lib/thumb/v7e-m/nofp/libg_nano.a(lib_a-dtoa.o)
 .data          0x0000000000000000        0x0 /usr/gcc-arm-none-eabi-10.3-2021.07/bin/../lib/gcc/arm-none-eabi/10.3.1/../../../../arm-none-eabi/lib/thumb/v7e-m/nofp/libg_nano.a(lib_a-dtoa.o)
 .bss           0x0000000000000000        0x0 /usr/gcc-arm-none-eabi-10.3-2021.07/bin/../lib/gcc/arm-none-eabi/10.3.1/../../../../arm-none-eabi/lib/thumb/v7e-m/nofp/libg_nano.a(lib_a-dtoa.o)
 .text          0x0000000000000000        0x0 /usr/gcc-arm-none-eabi-10.3-2021.07/bin/../lib/gcc/arm-none-eabi/10.3.1/../../../../arm-none-eabi/lib/thumb/v7e-m/nofp/libg_nano.a(lib_a-fflush.o)
 .data          0x0000000000000000        0x0 /usr/gcc-arm-none-eabi-10.3-2021.07/bin/../lib/gcc/arm-none-eabi/10.3.1/../../../../arm-none-eabi/lib/thumb/v7e-m/nofp/libg_nano.a(lib_a-fflush.o)
 .bss           0x0000000000000000        0x0 /usr/gcc-arm-none-eabi-10.3-2021.07/bin/../lib/gcc/arm-none-eabi/10.3.1/../../../../arm-none-eabi/lib/thumb/v7e-m/nofp/libg_nano.a(lib_a-fflush.o)
 .text.fflush   0x0000000000000000       0x24 /usr/gcc-arm-none-eabi-10.3-2021.07/bin/../lib/gcc/arm-none-eabi/10.3.1/../../../../arm-none-eabi/lib/thumb/v7e-m/nofp/libg_nano.a(lib_a-fflush.o)
 .text          0x0000000000000000        0x0 /usr/gcc-arm-none-eabi-10.3-2021.07/bin/../lib/gcc/arm-none-eabi/10.3.1/../../../../arm-none-eabi/lib/thumb/v7e-m/nofp/libg_nano.a(lib_a-findfp.o)
 .data          0x0000000000000000        0x0 /usr/gcc-arm-none-eabi-10.3-2021.07/bin/../lib/gcc/arm-none-eabi/10.3.1/../../../../arm-none-eabi/lib/thumb/v7e-m/nofp/libg_nano.a(lib_a-findfp.o)
 .bss           0x0000000000000000        0x0 /usr/gcc-arm-none-eabi-10.3-2021.07/bin/../lib/gcc/arm-none-eabi/10.3.1/../../../../arm-none-eabi/lib/thumb/v7e-m/nofp/libg_nano.a(lib_a-findfp.o)
 .text.__fp_lock
                0x0000000000000000       0x18 /usr/gcc-arm-none-eabi-10.3-2021.07/bin/../lib/gcc/arm-none-eabi/10.3.1/../../../../arm-none-eabi/lib/thumb/v7e-m/nofp/libg_nano.a(lib_a-findfp.o)
 .text.__fp_unlock
                0x0000000000000000       0x18 /usr/gcc-arm-none-eabi-10.3-2021.07/bin/../lib/gcc/arm-none-eabi/10.3.1/../../../../arm-none-eabi/lib/thumb/v7e-m/nofp/libg_nano.a(lib_a-findfp.o)
 .text._cleanup
                0x0000000000000000        0xc /usr/gcc-arm-none-eabi-10.3-2021.07/bin/../lib/gcc/arm-none-eabi/10.3.1/../../../../arm-none-eabi/lib/thumb/v7e-m/nofp/libg_nano.a(lib_a-findfp.o)
 .text.__fp_lock_all
                0x0000000000000000       0x1c /usr/gcc-arm-none-eabi-10.3-2021.07/bin/../lib/gcc/arm-none-eabi/10.3.1/../../../../arm-none-eabi/lib/thumb/v7e-m/nofp/libg_nano.a(lib_a-findfp.o)
 .text.__fp_unlock_all
                0x0000000000000000       0x1c /usr/gcc-arm-none-eabi-10.3-2021.07/bin/../lib/gcc/arm-none-eabi/10.3.1/../../../../arm-none-eabi/lib/thumb/v7e-m/nofp/libg_nano.a(lib_a-findfp.o)
 .text          0x0000000000000000        0x0 /usr/gcc-arm-none-eabi-10.3-2021.07/bin/../lib/gcc/arm-none-eabi/10.3.1/../../../../arm-none-eabi/lib/thumb/v7e-m/nofp/libg_nano.a(lib_a-fvwrite.o)
 .data          0x0000000000000000        0x0 /usr/gcc-arm-none-eabi-10.3-2021.07/bin/../lib/gcc/arm-none-eabi/10.3.1/../../../../arm-none-eabi/lib/thumb/v7e-m/nofp/libg_nano.a(lib_a-fvwrite.o)
 .bss           0x0000000000000000        0x0 /usr/gcc-arm-none-eabi-10.3-2021.07/bin/../lib/gcc/arm-none-eabi/10.3.1/../../../../arm-none-eabi/lib/thumb/v7e-m/nofp/libg_nano.a(lib_a-fvwrite.o)
 .text.__sfvwrite_r
                0x0000000000000000      0x290 /usr/gcc-arm-none-eabi-10.3-2021.07/bin/../lib/gcc/arm-none-eabi/10.3.1/../../../../arm-none-eabi/lib/thumb/v7e-m/nofp/libg_nano.a(lib_a-fvwrite.o)
 .debug_frame   0x0000000000000000       0x3c /usr/gcc-arm-none-eabi-10.3-2021.07/bin/../lib/gcc/arm-none-eabi/10.3.1/../../../../arm-none-eabi/lib/thumb/v7e-m/nofp/libg_nano.a(lib_a-fvwrite.o)
 .ARM.attributes
                0x0000000000000000       0x2e /usr/gcc-arm-none-eabi-10.3-2021.07/bin/../lib/gcc/arm-none-eabi/10.3.1/../../../../arm-none-eabi/lib/thumb/v7e-m/nofp/libg_nano.a(lib_a-fvwrite.o)
 .text          0x0000000000000000        0x0 /usr/gcc-arm-none-eabi-10.3-2021.07/bin/../lib/gcc/arm-none-eabi/10.3.1/../../../../arm-none-eabi/lib/thumb/v7e-m/nofp/libg_nano.a(lib_a-fwalk.o)
 .data          0x0000000000000000        0x0 /usr/gcc-arm-none-eabi-10.3-2021.07/bin/../lib/gcc/arm-none-eabi/10.3.1/../../../../arm-none-eabi/lib/thumb/v7e-m/nofp/libg_nano.a(lib_a-fwalk.o)
 .bss           0x0000000000000000        0x0 /usr/gcc-arm-none-eabi-10.3-2021.07/bin/../lib/gcc/arm-none-eabi/10.3.1/../../../../arm-none-eabi/lib/thumb/v7e-m/nofp/libg_nano.a(lib_a-fwalk.o)
 .text._fwalk   0x0000000000000000       0x3a /usr/gcc-arm-none-eabi-10.3-2021.07/bin/../lib/gcc/arm-none-eabi/10.3.1/../../../../arm-none-eabi/lib/thumb/v7e-m/nofp/libg_nano.a(lib_a-fwalk.o)
 .text          0x0000000000000000        0x0 /usr/gcc-arm-none-eabi-10.3-2021.07/bin/../lib/gcc/arm-none-eabi/10.3.1/../../../../arm-none-eabi/lib/thumb/v7e-m/nofp/libg_nano.a(lib_a-gdtoa-gethex.o)
 .data          0x0000000000000000        0x0 /usr/gcc-arm-none-eabi-10.3-2021.07/bin/../lib/gcc/arm-none-eabi/10.3.1/../../../../arm-none-eabi/lib/thumb/v7e-m/nofp/libg_nano.a(lib_a-gdtoa-gethex.o)
 .bss           0x0000000000000000        0x0 /usr/gcc-arm-none-eabi-10.3-2021.07/bin/../lib/gcc/arm-none-eabi/10.3.1/../../../../arm-none-eabi/lib/thumb/v7e-m/nofp/libg_nano.a(lib_a-gdtoa-gethex.o)
 .text          0x0000000000000000        0x0 /usr/gcc-arm-none-eabi-10.3-2021.07/bin/../lib/gcc/arm-none-eabi/10.3.1/../../../../arm-none-eabi/lib/thumb/v7e-m/nofp/libg_nano.a(lib_a-gdtoa-hexnan.o)
 .data          0x0000000000000000        0x0 /usr/gcc-arm-none-eabi-10.3-2021.07/bin/../lib/gcc/arm-none-eabi/10.3.1/../../../../arm-none-eabi/lib/thumb/v7e-m/nofp/libg_nano.a(lib_a-gdtoa-hexnan.o)
 .bss           0x0000000000000000        0x0 /usr/gcc-arm-none-eabi-10.3-2021.07/bin/../lib/gcc/arm-none-eabi/10.3.1/../../../../arm-none-eabi/lib/thumb/v7e-m/nofp/libg_nano.a(lib_a-gdtoa-hexnan.o)
 .text          0x0000000000000000        0x0 /usr/gcc-arm-none-eabi-10.3-2021.07/bin/../lib/gcc/arm-none-eabi/10.3.1/../../../../arm-none-eabi/lib/thumb/v7e-m/nofp/libg_nano.a(lib_a-lnumeric.o)
 .data          0x0000000000000000        0x0 /usr/gcc-arm-none-eabi-10.3-2021.07/bin/../lib/gcc/arm-none-eabi/10.3.1/../../../../arm-none-eabi/lib/thumb/v7e-m/nofp/libg_nano.a(lib_a-lnumeric.o)
 .bss           0x0000000000000000        0x0 /usr/gcc-arm-none-eabi-10.3-2021.07/bin/../lib/gcc/arm-none-eabi/10.3.1/../../../../arm-none-eabi/lib/thumb/v7e-m/nofp/libg_nano.a(lib_a-lnumeric.o)
 .text.__numeric_load_locale
                0x0000000000000000        0x4 /usr/gcc-arm-none-eabi-10.3-2021.07/bin/../lib/gcc/arm-none-eabi/10.3.1/../../../../arm-none-eabi/lib/thumb/v7e-m/nofp/libg_nano.a(lib_a-lnumeric.o)
 .text          0x0000000000000000        0x0 /usr/gcc-arm-none-eabi-10.3-2021.07/bin/../lib/gcc/arm-none-eabi/10.3.1/../../../../arm-none-eabi/lib/thumb/v7e-m/nofp/libg_nano.a(lib_a-locale.o)
 .data          0x0000000000000000        0x0 /usr/gcc-arm-none-eabi-10.3-2021.07/bin/../lib/gcc/arm-none-eabi/10.3.1/../../../../arm-none-eabi/lib/thumb/v7e-m/nofp/libg_nano.a(lib_a-locale.o)
 .bss           0x0000000000000000        0x0 /usr/gcc-arm-none-eabi-10.3-2021.07/bin/../lib/gcc/arm-none-eabi/10.3.1/../../../../arm-none-eabi/lib/thumb/v7e-m/nofp/libg_nano.a(lib_a-locale.o)
 .text._setlocale_r
                0x0000000000000000       0x40 /usr/gcc-arm-none-eabi-10.3-2021.07/bin/../lib/gcc/arm-none-eabi/10.3.1/../../../../arm-none-eabi/lib/thumb/v7e-m/nofp/libg_nano.a(lib_a-locale.o)
 .text.__locale_mb_cur_max
                0x0000000000000000        0xc /usr/gcc-arm-none-eabi-10.3-2021.07/bin/../lib/gcc/arm-none-eabi/10.3.1/../../../../arm-none-eabi/lib/thumb/v7e-m/nofp/libg_nano.a(lib_a-locale.o)
 .text.setlocale
                0x0000000000000000       0x10 /usr/gcc-arm-none-eabi-10.3-2021.07/bin/../lib/gcc/arm-none-eabi/10.3.1/../../../../arm-none-eabi/lib/thumb/v7e-m/nofp/libg_nano.a(lib_a-locale.o)
 .bss._PathLocale
                0x0000000000000000        0x4 /usr/gcc-arm-none-eabi-10.3-2021.07/bin/../lib/gcc/arm-none-eabi/10.3.1/../../../../arm-none-eabi/lib/thumb/v7e-m/nofp/libg_nano.a(lib_a-locale.o)
 .text          0x0000000000000000        0x0 /usr/gcc-arm-none-eabi-10.3-2021.07/bin/../lib/gcc/arm-none-eabi/10.3.1/../../../../arm-none-eabi/lib/thumb/v7e-m/nofp/libg_nano.a(lib_a-localeconv.o)
 .data          0x0000000000000000        0x0 /usr/gcc-arm-none-eabi-10.3-2021.07/bin/../lib/gcc/arm-none-eabi/10.3.1/../../../../arm-none-eabi/lib/thumb/v7e-m/nofp/libg_nano.a(lib_a-localeconv.o)
 .bss           0x0000000000000000        0x0 /usr/gcc-arm-none-eabi-10.3-2021.07/bin/../lib/gcc/arm-none-eabi/10.3.1/../../../../arm-none-eabi/lib/thumb/v7e-m/nofp/libg_nano.a(lib_a-localeconv.o)
 .text.__localeconv_l
                0x0000000000000000        0x4 /usr/gcc-arm-none-eabi-10.3-2021.07/bin/../lib/gcc/arm-none-eabi/10.3.1/../../../../arm-none-eabi/lib/thumb/v7e-m/nofp/libg_nano.a(lib_a-localeconv.o)
 .text.localeconv
                0x0000000000000000        0x8 /usr/gcc-arm-none-eabi-10.3-2021.07/bin/../lib/gcc/arm-none-eabi/10.3.1/../../../../arm-none-eabi/lib/thumb/v7e-m/nofp/libg_nano.a(lib_a-localeconv.o)
 .text          0x0000000000000000        0x0 /usr/gcc-arm-none-eabi-10.3-2021.07/bin/../lib/gcc/arm-none-eabi/10.3.1/../../../../arm-none-eabi/lib/thumb/v7e-m/nofp/libg_nano.a(lib_a-lock.o)
 .data          0x0000000000000000        0x0 /usr/gcc-arm-none-eabi-10.3-2021.07/bin/../lib/gcc/arm-none-eabi/10.3.1/../../../../arm-none-eabi/lib/thumb/v7e-m/nofp/libg_nano.a(lib_a-lock.o)
 .bss           0x0000000000000000        0x0 /usr/gcc-arm-none-eabi-10.3-2021.07/bin/../lib/gcc/arm-none-eabi/10.3.1/../../../../arm-none-eabi/lib/thumb/v7e-m/nofp/libg_nano.a(lib_a-lock.o)
 .text.__retarget_lock_init
                0x0000000000000000        0x2 /usr/gcc-arm-none-eabi-10.3-2021.07/bin/../lib/gcc/arm-none-eabi/10.3.1/../../../../arm-none-eabi/lib/thumb/v7e-m/nofp/libg_nano.a(lib_a-lock.o)
 .text.__retarget_lock_close
                0x0000000000000000        0x2 /usr/gcc-arm-none-eabi-10.3-2021.07/bin/../lib/gcc/arm-none-eabi/10.3.1/../../../../arm-none-eabi/lib/thumb/v7e-m/nofp/libg_nano.a(lib_a-lock.o)
 .text.__retarget_lock_close_recursive
                0x0000000000000000        0x2 /usr/gcc-arm-none-eabi-10.3-2021.07/bin/../lib/gcc/arm-none-eabi/10.3.1/../../../../arm-none-eabi/lib/thumb/v7e-m/nofp/libg_nano.a(lib_a-lock.o)
 .text.__retarget_lock_acquire
                0x0000000000000000        0x2 /usr/gcc-arm-none-eabi-10.3-2021.07/bin/../lib/gcc/arm-none-eabi/10.3.1/../../../../arm-none-eabi/lib/thumb/v7e-m/nofp/libg_nano.a(lib_a-lock.o)
 .text.__retarget_lock_try_acquire
                0x0000000000000000        0x4 /usr/gcc-arm-none-eabi-10.3-2021.07/bin/../lib/gcc/arm-none-eabi/10.3.1/../../../../arm-none-eabi/lib/thumb/v7e-m/nofp/libg_nano.a(lib_a-lock.o)
 .text.__retarget_lock_try_acquire_recursive
                0x0000000000000000        0x4 /usr/gcc-arm-none-eabi-10.3-2021.07/bin/../lib/gcc/arm-none-eabi/10.3.1/../../../../arm-none-eabi/lib/thumb/v7e-m/nofp/libg_nano.a(lib_a-lock.o)
 .text.__retarget_lock_release
                0x0000000000000000        0x2 /usr/gcc-arm-none-eabi-10.3-2021.07/bin/../lib/gcc/arm-none-eabi/10.3.1/../../../../arm-none-eabi/lib/thumb/v7e-m/nofp/libg_nano.a(lib_a-lock.o)
 .bss.__lock___arc4random_mutex
                0x0000000000000000        0x1 /usr/gcc-arm-none-eabi-10.3-2021.07/bin/../lib/gcc/arm-none-eabi/10.3.1/../../../../arm-none-eabi/lib/thumb/v7e-m/nofp/libg_nano.a(lib_a-lock.o)
 .bss.__lock___at_quick_exit_mutex
                0x0000000000000000        0x1 /usr/gcc-arm-none-eabi-10.3-2021.07/bin/../lib/gcc/arm-none-eabi/10.3.1/../../../../arm-none-eabi/lib/thumb/v7e-m/nofp/libg_nano.a(lib_a-lock.o)
 .bss.__lock___atexit_recursive_mutex
                0x0000000000000000        0x1 /usr/gcc-arm-none-eabi-10.3-2021.07/bin/../lib/gcc/arm-none-eabi/10.3.1/../../../../arm-none-eabi/lib/thumb/v7e-m/nofp/libg_nano.a(lib_a-lock.o)
 .bss.__lock___dd_hash_mutex
                0x0000000000000000        0x1 /usr/gcc-arm-none-eabi-10.3-2021.07/bin/../lib/gcc/arm-none-eabi/10.3.1/../../../../arm-none-eabi/lib/thumb/v7e-m/nofp/libg_nano.a(lib_a-lock.o)
 .bss.__lock___env_recursive_mutex
                0x0000000000000000        0x1 /usr/gcc-arm-none-eabi-10.3-2021.07/bin/../lib/gcc/arm-none-eabi/10.3.1/../../../../arm-none-eabi/lib/thumb/v7e-m/nofp/libg_nano.a(lib_a-lock.o)
 .bss.__lock___tz_mutex
                0x0000000000000000        0x1 /usr/gcc-arm-none-eabi-10.3-2021.07/bin/../lib/gcc/arm-none-eabi/10.3.1/../../../../arm-none-eabi/lib/thumb/v7e-m/nofp/libg_nano.a(lib_a-lock.o)
 .text          0x0000000000000000        0x0 /usr/gcc-arm-none-eabi-10.3-2021.07/bin/../lib/gcc/arm-none-eabi/10.3.1/../../../../arm-none-eabi/lib/thumb/v7e-m/nofp/libg_nano.a(lib_a-makebuf.o)
 .data          0x0000000000000000        0x0 /usr/gcc-arm-none-eabi-10.3-2021.07/bin/../lib/gcc/arm-none-eabi/10.3.1/../../../../arm-none-eabi/lib/thumb/v7e-m/nofp/libg_nano.a(lib_a-makebuf.o)
 .bss           0x0000000000000000        0x0 /usr/gcc-arm-none-eabi-10.3-2021.07/bin/../lib/gcc/arm-none-eabi/10.3.1/../../../../arm-none-eabi/lib/thumb/v7e-m/nofp/libg_nano.a(lib_a-makebuf.o)
 .text          0x0000000000000000        0x0 /usr/gcc-arm-none-eabi-10.3-2021.07/bin/../lib/gcc/arm-none-eabi/10.3.1/../../../../arm-none-eabi/lib/thumb/v7e-m/nofp/libg_nano.a(lib_a-malloc.o)
 .data          0x0000000000000000        0x0 /usr/gcc-arm-none-eabi-10.3-2021.07/bin/../lib/gcc/arm-none-eabi/10.3.1/../../../../arm-none-eabi/lib/thumb/v7e-m/nofp/libg_nano.a(lib_a-malloc.o)
 .bss           0x0000000000000000        0x0 /usr/gcc-arm-none-eabi-10.3-2021.07/bin/../lib/gcc/arm-none-eabi/10.3.1/../../../../arm-none-eabi/lib/thumb/v7e-m/nofp/libg_nano.a(lib_a-malloc.o)
 .text.free     0x0000000000000000       0x10 /usr/gcc-arm-none-eabi-10.3-2021.07/bin/../lib/gcc/arm-none-eabi/10.3.1/../../../../arm-none-eabi/lib/thumb/v7e-m/nofp/libg_nano.a(lib_a-malloc.o)
 .text          0x0000000000000000        0x0 /usr/gcc-arm-none-eabi-10.3-2021.07/bin/../lib/gcc/arm-none-eabi/10.3.1/../../../../arm-none-eabi/lib/thumb/v7e-m/nofp/libg_nano.a(lib_a-mbtowc_r.o)
 .data          0x0000000000000000        0x0 /usr/gcc-arm-none-eabi-10.3-2021.07/bin/../lib/gcc/arm-none-eabi/10.3.1/../../../../arm-none-eabi/lib/thumb/v7e-m/nofp/libg_nano.a(lib_a-mbtowc_r.o)
 .bss           0x0000000000000000        0x0 /usr/gcc-arm-none-eabi-10.3-2021.07/bin/../lib/gcc/arm-none-eabi/10.3.1/../../../../arm-none-eabi/lib/thumb/v7e-m/nofp/libg_nano.a(lib_a-mbtowc_r.o)
 .text._mbtowc_r
                0x0000000000000000       0x14 /usr/gcc-arm-none-eabi-10.3-2021.07/bin/../lib/gcc/arm-none-eabi/10.3.1/../../../../arm-none-eabi/lib/thumb/v7e-m/nofp/libg_nano.a(lib_a-mbtowc_r.o)
 .data          0x0000000000000000        0x0 /usr/gcc-arm-none-eabi-10.3-2021.07/bin/../lib/gcc/arm-none-eabi/10.3.1/../../../../arm-none-eabi/lib/thumb/v7e-m/nofp/libg_nano.a(lib_a-memchr.o)
 .bss           0x0000000000000000        0x0 /usr/gcc-arm-none-eabi-10.3-2021.07/bin/../lib/gcc/arm-none-eabi/10.3.1/../../../../arm-none-eabi/lib/thumb/v7e-m/nofp/libg_nano.a(lib_a-memchr.o)
 .text          0x0000000000000000        0x0 /usr/gcc-arm-none-eabi-10.3-2021.07/bin/../lib/gcc/arm-none-eabi/10.3.1/../../../../arm-none-eabi/lib/thumb/v7e-m/nofp/libg_nano.a(lib_a-memcpy-stub.o)
 .data          0x0000000000000000        0x0 /usr/gcc-arm-none-eabi-10.3-2021.07/bin/../lib/gcc/arm-none-eabi/10.3.1/../../../../arm-none-eabi/lib/thumb/v7e-m/nofp/libg_nano.a(lib_a-memcpy-stub.o)
 .bss           0x0000000000000000        0x0 /usr/gcc-arm-none-eabi-10.3-2021.07/bin/../lib/gcc/arm-none-eabi/10.3.1/../../../../arm-none-eabi/lib/thumb/v7e-m/nofp/libg_nano.a(lib_a-memcpy-stub.o)
 .text          0x0000000000000000        0x0 /usr/gcc-arm-none-eabi-10.3-2021.07/bin/../lib/gcc/arm-none-eabi/10.3.1/../../../../arm-none-eabi/lib/thumb/v7e-m/nofp/libg_nano.a(lib_a-memmove.o)
 .data          0x0000000000000000        0x0 /usr/gcc-arm-none-eabi-10.3-2021.07/bin/../lib/gcc/arm-none-eabi/10.3.1/../../../../arm-none-eabi/lib/thumb/v7e-m/nofp/libg_nano.a(lib_a-memmove.o)
 .bss           0x0000000000000000        0x0 /usr/gcc-arm-none-eabi-10.3-2021.07/bin/../lib/gcc/arm-none-eabi/10.3.1/../../../../arm-none-eabi/lib/thumb/v7e-m/nofp/libg_nano.a(lib_a-memmove.o)
 .text          0x0000000000000000        0x0 /usr/gcc-arm-none-eabi-10.3-2021.07/bin/../lib/gcc/arm-none-eabi/10.3.1/../../../../arm-none-eabi/lib/thumb/v7e-m/nofp/libg_nano.a(lib_a-mprec.o)
 .data          0x0000000000000000        0x0 /usr/gcc-arm-none-eabi-10.3-2021.07/bin/../lib/gcc/arm-none-eabi/10.3.1/../../../../arm-none-eabi/lib/thumb/v7e-m/nofp/libg_nano.a(lib_a-mprec.o)
 .bss           0x0000000000000000        0x0 /usr/gcc-arm-none-eabi-10.3-2021.07/bin/../lib/gcc/arm-none-eabi/10.3.1/../../../../arm-none-eabi/lib/thumb/v7e-m/nofp/libg_nano.a(lib_a-mprec.o)
 .text._mprec_log10
                0x0000000000000000       0x38 /usr/gcc-arm-none-eabi-10.3-2021.07/bin/../lib/gcc/arm-none-eabi/10.3.1/../../../../arm-none-eabi/lib/thumb/v7e-m/nofp/libg_nano.a(lib_a-mprec.o)
 .rodata.__mprec_tinytens
                0x0000000000000000       0x28 /usr/gcc-arm-none-eabi-10.3-2021.07/bin/../lib/gcc/arm-none-eabi/10.3.1/../../../../arm-none-eabi/lib/thumb/v7e-m/nofp/libg_nano.a(lib_a-mprec.o)
 .text          0x0000000000000000        0x0 /usr/gcc-arm-none-eabi-10.3-2021.07/bin/../lib/gcc/arm-none-eabi/10.3.1/../../../../arm-none-eabi/lib/thumb/v7e-m/nofp/libg_nano.a(lib_a-nano-callocr.o)
 .data          0x0000000000000000        0x0 /usr/gcc-arm-none-eabi-10.3-2021.07/bin/../lib/gcc/arm-none-eabi/10.3.1/../../../../arm-none-eabi/lib/thumb/v7e-m/nofp/libg_nano.a(lib_a-nano-callocr.o)
 .bss           0x0000000000000000        0x0 /usr/gcc-arm-none-eabi-10.3-2021.07/bin/../lib/gcc/arm-none-eabi/10.3.1/../../../../arm-none-eabi/lib/thumb/v7e-m/nofp/libg_nano.a(lib_a-nano-callocr.o)
 .text          0x0000000000000000        0x0 /usr/gcc-arm-none-eabi-10.3-2021.07/bin/../lib/gcc/arm-none-eabi/10.3.1/../../../../arm-none-eabi/lib/thumb/v7e-m/nofp/libg_nano.a(lib_a-nano-freer.o)
 .data          0x0000000000000000        0x0 /usr/gcc-arm-none-eabi-10.3-2021.07/bin/../lib/gcc/arm-none-eabi/10.3.1/../../../../arm-none-eabi/lib/thumb/v7e-m/nofp/libg_nano.a(lib_a-nano-freer.o)
 .bss           0x0000000000000000        0x0 /usr/gcc-arm-none-eabi-10.3-2021.07/bin/../lib/gcc/arm-none-eabi/10.3.1/../../../../arm-none-eabi/lib/thumb/v7e-m/nofp/libg_nano.a(lib_a-nano-freer.o)
 .text          0x0000000000000000        0x0 /usr/gcc-arm-none-eabi-10.3-2021.07/bin/../lib/gcc/arm-none-eabi/10.3.1/../../../../arm-none-eabi/lib/thumb/v7e-m/nofp/libg_nano.a(lib_a-nano-mallocr.o)
 .data          0x0000000000000000        0x0 /usr/gcc-arm-none-eabi-10.3-2021.07/bin/../lib/gcc/arm-none-eabi/10.3.1/../../../../arm-none-eabi/lib/thumb/v7e-m/nofp/libg_nano.a(lib_a-nano-mallocr.o)
 .bss           0x0000000000000000        0x0 /usr/gcc-arm-none-eabi-10.3-2021.07/bin/../lib/gcc/arm-none-eabi/10.3.1/../../../../arm-none-eabi/lib/thumb/v7e-m/nofp/libg_nano.a(lib_a-nano-mallocr.o)
 .text          0x0000000000000000        0x0 /usr/gcc-arm-none-eabi-10.3-2021.07/bin/../lib/gcc/arm-none-eabi/10.3.1/../../../../arm-none-eabi/lib/thumb/v7e-m/nofp/libg_nano.a(lib_a-nano-reallocr.o)
 .data          0x0000000000000000        0x0 /usr/gcc-arm-none-eabi-10.3-2021.07/bin/../lib/gcc/arm-none-eabi/10.3.1/../../../../arm-none-eabi/lib/thumb/v7e-m/nofp/libg_nano.a(lib_a-nano-reallocr.o)
 .bss           0x0000000000000000        0x0 /usr/gcc-arm-none-eabi-10.3-2021.07/bin/../lib/gcc/arm-none-eabi/10.3.1/../../../../arm-none-eabi/lib/thumb/v7e-m/nofp/libg_nano.a(lib_a-nano-reallocr.o)
 .text          0x0000000000000000        0x0 /usr/gcc-arm-none-eabi-10.3-2021.07/bin/../lib/gcc/arm-none-eabi/10.3.1/../../../../arm-none-eabi/lib/thumb/v7e-m/nofp/libg_nano.a(lib_a-s_nan.o)
 .data          0x0000000000000000        0x0 /usr/gcc-arm-none-eabi-10.3-2021.07/bin/../lib/gcc/arm-none-eabi/10.3.1/../../../../arm-none-eabi/lib/thumb/v7e-m/nofp/libg_nano.a(lib_a-s_nan.o)
 .bss           0x0000000000000000        0x0 /usr/gcc-arm-none-eabi-10.3-2021.07/bin/../lib/gcc/arm-none-eabi/10.3.1/../../../../arm-none-eabi/lib/thumb/v7e-m/nofp/libg_nano.a(lib_a-s_nan.o)
 .text          0x0000000000000000        0x0 /usr/gcc-arm-none-eabi-10.3-2021.07/bin/../lib/gcc/arm-none-eabi/10.3.1/../../../../arm-none-eabi/lib/thumb/v7e-m/nofp/libg_nano.a(lib_a-sbrkr.o)
 .data          0x0000000000000000        0x0 /usr/gcc-arm-none-eabi-10.3-2021.07/bin/../lib/gcc/arm-none-eabi/10.3.1/../../../../arm-none-eabi/lib/thumb/v7e-m/nofp/libg_nano.a(lib_a-sbrkr.o)
 .bss           0x0000000000000000        0x0 /usr/gcc-arm-none-eabi-10.3-2021.07/bin/../lib/gcc/arm-none-eabi/10.3.1/../../../../arm-none-eabi/lib/thumb/v7e-m/nofp/libg_nano.a(lib_a-sbrkr.o)
 .text          0x0000000000000000        0x0 /usr/gcc-arm-none-eabi-10.3-2021.07/bin/../lib/gcc/arm-none-eabi/10.3.1/../../../../arm-none-eabi/lib/thumb/v7e-m/nofp/libg_nano.a(lib_a-sf_nan.o)
 .data          0x0000000000000000        0x0 /usr/gcc-arm-none-eabi-10.3-2021.07/bin/../lib/gcc/arm-none-eabi/10.3.1/../../../../arm-none-eabi/lib/thumb/v7e-m/nofp/libg_nano.a(lib_a-sf_nan.o)
 .bss           0x0000000000000000        0x0 /usr/gcc-arm-none-eabi-10.3-2021.07/bin/../lib/gcc/arm-none-eabi/10.3.1/../../../../arm-none-eabi/lib/thumb/v7e-m/nofp/libg_nano.a(lib_a-sf_nan.o)
 .text.nanf     0x0000000000000000        0x8 /usr/gcc-arm-none-eabi-10.3-2021.07/bin/../lib/gcc/arm-none-eabi/10.3.1/../../../../arm-none-eabi/lib/thumb/v7e-m/nofp/libg_nano.a(lib_a-sf_nan.o)
 .debug_frame   0x0000000000000000       0x20 /usr/gcc-arm-none-eabi-10.3-2021.07/bin/../lib/gcc/arm-none-eabi/10.3.1/../../../../arm-none-eabi/lib/thumb/v7e-m/nofp/libg_nano.a(lib_a-sf_nan.o)
 .ARM.attributes
                0x0000000000000000       0x2e /usr/gcc-arm-none-eabi-10.3-2021.07/bin/../lib/gcc/arm-none-eabi/10.3.1/../../../../arm-none-eabi/lib/thumb/v7e-m/nofp/libg_nano.a(lib_a-sf_nan.o)
 .text          0x0000000000000000        0x0 /usr/gcc-arm-none-eabi-10.3-2021.07/bin/../lib/gcc/arm-none-eabi/10.3.1/../../../../arm-none-eabi/lib/thumb/v7e-m/nofp/libg_nano.a(lib_a-signal.o)
 .data          0x0000000000000000        0x0 /usr/gcc-arm-none-eabi-10.3-2021.07/bin/../lib/gcc/arm-none-eabi/10.3.1/../../../../arm-none-eabi/lib/thumb/v7e-m/nofp/libg_nano.a(lib_a-signal.o)
 .bss           0x0000000000000000        0x0 /usr/gcc-arm-none-eabi-10.3-2021.07/bin/../lib/gcc/arm-none-eabi/10.3.1/../../../../arm-none-eabi/lib/thumb/v7e-m/nofp/libg_nano.a(lib_a-signal.o)
 .text._init_signal_r
                0x0000000000000000       0x28 /usr/gcc-arm-none-eabi-10.3-2021.07/bin/../lib/gcc/arm-none-eabi/10.3.1/../../../../arm-none-eabi/lib/thumb/v7e-m/nofp/libg_nano.a(lib_a-signal.o)
 .text._signal_r
                0x0000000000000000       0x30 /usr/gcc-arm-none-eabi-10.3-2021.07/bin/../lib/gcc/arm-none-eabi/10.3.1/../../../../arm-none-eabi/lib/thumb/v7e-m/nofp/libg_nano.a(lib_a-signal.o)
 .text.__sigtramp_r
                0x0000000000000000       0x48 /usr/gcc-arm-none-eabi-10.3-2021.07/bin/../lib/gcc/arm-none-eabi/10.3.1/../../../../arm-none-eabi/lib/thumb/v7e-m/nofp/libg_nano.a(lib_a-signal.o)
 .text.signal   0x0000000000000000       0x10 /usr/gcc-arm-none-eabi-10.3-2021.07/bin/../lib/gcc/arm-none-eabi/10.3.1/../../../../arm-none-eabi/lib/thumb/v7e-m/nofp/libg_nano.a(lib_a-signal.o)
 .text._init_signal
                0x0000000000000000        0xc /usr/gcc-arm-none-eabi-10.3-2021.07/bin/../lib/gcc/arm-none-eabi/10.3.1/../../../../arm-none-eabi/lib/thumb/v7e-m/nofp/libg_nano.a(lib_a-signal.o)
 .text.__sigtramp
                0x0000000000000000       0x10 /usr/gcc-arm-none-eabi-10.3-2021.07/bin/../lib/gcc/arm-none-eabi/10.3.1/../../../../arm-none-eabi/lib/thumb/v7e-m/nofp/libg_nano.a(lib_a-signal.o)
 .text          0x0000000000000000        0x0 /usr/gcc-arm-none-eabi-10.3-2021.07/bin/../lib/gcc/arm-none-eabi/10.3.1/../../../../arm-none-eabi/lib/thumb/v7e-m/nofp/libg_nano.a(lib_a-signalr.o)
 .data          0x0000000000000000        0x0 /usr/gcc-arm-none-eabi-10.3-2021.07/bin/../lib/gcc/arm-none-eabi/10.3.1/../../../../arm-none-eabi/lib/thumb/v7e-m/nofp/libg_nano.a(lib_a-signalr.o)
 .bss           0x0000000000000000        0x0 /usr/gcc-arm-none-eabi-10.3-2021.07/bin/../lib/gcc/arm-none-eabi/10.3.1/../../../../arm-none-eabi/lib/thumb/v7e-m/nofp/libg_nano.a(lib_a-signalr.o)
 .text          0x0000000000000000        0x0 /usr/gcc-arm-none-eabi-10.3-2021.07/bin/../lib/gcc/arm-none-eabi/10.3.1/../../../../arm-none-eabi/lib/thumb/v7e-m/nofp/libg_nano.a(lib_a-stdio.o)
 .data          0x0000000000000000        0x0 /usr/gcc-arm-none-eabi-10.3-2021.07/bin/../lib/gcc/arm-none-eabi/10.3.1/../../../../arm-none-eabi/lib/thumb/v7e-m/nofp/libg_nano.a(lib_a-stdio.o)
 .bss           0x0000000000000000        0x0 /usr/gcc-arm-none-eabi-10.3-2021.07/bin/../lib/gcc/arm-none-eabi/10.3.1/../../../../arm-none-eabi/lib/thumb/v7e-m/nofp/libg_nano.a(lib_a-stdio.o)
 .text.__seofread
                0x0000000000000000        0x4 /usr/gcc-arm-none-eabi-10.3-2021.07/bin/../lib/gcc/arm-none-eabi/10.3.1/../../../../arm-none-eabi/lib/thumb/v7e-m/nofp/libg_nano.a(lib_a-stdio.o)
 .text          0x0000000000000000       0x14 /usr/gcc-arm-none-eabi-10.3-2021.07/bin/../lib/gcc/arm-none-eabi/10.3.1/../../../../arm-none-eabi/lib/thumb/v7e-m/nofp/libg_nano.a(lib_a-strcmp.o)
 .data          0x0000000000000000        0x0 /usr/gcc-arm-none-eabi-10.3-2021.07/bin/../lib/gcc/arm-none-eabi/10.3.1/../../../../arm-none-eabi/lib/thumb/v7e-m/nofp/libg_nano.a(lib_a-strcmp.o)
 .bss           0x0000000000000000        0x0 /usr/gcc-arm-none-eabi-10.3-2021.07/bin/../lib/gcc/arm-none-eabi/10.3.1/../../../../arm-none-eabi/lib/thumb/v7e-m/nofp/libg_nano.a(lib_a-strcmp.o)
 .debug_frame   0x0000000000000000       0x20 /usr/gcc-arm-none-eabi-10.3-2021.07/bin/../lib/gcc/arm-none-eabi/10.3.1/../../../../arm-none-eabi/lib/thumb/v7e-m/nofp/libg_nano.a(lib_a-strcmp.o)
 .ARM.attributes
                0x0000000000000000       0x1c /usr/gcc-arm-none-eabi-10.3-2021.07/bin/../lib/gcc/arm-none-eabi/10.3.1/../../../../arm-none-eabi/lib/thumb/v7e-m/nofp/libg_nano.a(lib_a-strcmp.o)
 .text          0x0000000000000000        0x0 /usr/gcc-arm-none-eabi-10.3-2021.07/bin/../lib/gcc/arm-none-eabi/10.3.1/../../../../arm-none-eabi/lib/thumb/v7e-m/nofp/libg_nano.a(lib_a-strncmp.o)
 .data          0x0000000000000000        0x0 /usr/gcc-arm-none-eabi-10.3-2021.07/bin/../lib/gcc/arm-none-eabi/10.3.1/../../../../arm-none-eabi/lib/thumb/v7e-m/nofp/libg_nano.a(lib_a-strncmp.o)
 .bss           0x0000000000000000        0x0 /usr/gcc-arm-none-eabi-10.3-2021.07/bin/../lib/gcc/arm-none-eabi/10.3.1/../../../../arm-none-eabi/lib/thumb/v7e-m/nofp/libg_nano.a(lib_a-strncmp.o)
 .text          0x0000000000000000        0x0 /usr/gcc-arm-none-eabi-10.3-2021.07/bin/../lib/gcc/arm-none-eabi/10.3.1/../../../../arm-none-eabi/lib/thumb/v7e-m/nofp/libg_nano.a(lib_a-wctomb_r.o)
 .data          0x0000000000000000        0x0 /usr/gcc-arm-none-eabi-10.3-2021.07/bin/../lib/gcc/arm-none-eabi/10.3.1/../../../../arm-none-eabi/lib/thumb/v7e-m/nofp/libg_nano.a(lib_a-wctomb_r.o)
 .bss           0x0000000000000000        0x0 /usr/gcc-arm-none-eabi-10.3-2021.07/bin/../lib/gcc/arm-none-eabi/10.3.1/../../../../arm-none-eabi/lib/thumb/v7e-m/nofp/libg_nano.a(lib_a-wctomb_r.o)
 .text._wctomb_r
                0x0000000000000000       0x14 /usr/gcc-arm-none-eabi-10.3-2021.07/bin/../lib/gcc/arm-none-eabi/10.3.1/../../../../arm-none-eabi/lib/thumb/v7e-m/nofp/libg_nano.a(lib_a-wctomb_r.o)
 .text          0x0000000000000000        0x0 /usr/gcc-arm-none-eabi-10.3-2021.07/bin/../lib/gcc/arm-none-eabi/10.3.1/../../../../arm-none-eabi/lib/thumb/v7e-m/nofp/libg_nano.a(lib_a-writer.o)
 .data          0x0000000000000000        0x0 /usr/gcc-arm-none-eabi-10.3-2021.07/bin/../lib/gcc/arm-none-eabi/10.3.1/../../../../arm-none-eabi/lib/thumb/v7e-m/nofp/libg_nano.a(lib_a-writer.o)
 .bss           0x0000000000000000        0x0 /usr/gcc-arm-none-eabi-10.3-2021.07/bin/../lib/gcc/arm-none-eabi/10.3.1/../../../../arm-none-eabi/lib/thumb/v7e-m/nofp/libg_nano.a(lib_a-writer.o)
 .text          0x0000000000000000        0x0 /usr/gcc-arm-none-eabi-10.3-2021.07/bin/../lib/gcc/arm-none-eabi/10.3.1/../../../../arm-none-eabi/lib/thumb/v7e-m/nofp/libg_nano.a(lib_a-closer.o)
 .data          0x0000000000000000        0x0 /usr/gcc-arm-none-eabi-10.3-2021.07/bin/../lib/gcc/arm-none-eabi/10.3.1/../../../../arm-none-eabi/lib/thumb/v7e-m/nofp/libg_nano.a(lib_a-closer.o)
 .bss           0x0000000000000000        0x0 /usr/gcc-arm-none-eabi-10.3-2021.07/bin/../lib/gcc/arm-none-eabi/10.3.1/../../../../arm-none-eabi/lib/thumb/v7e-m/nofp/libg_nano.a(lib_a-closer.o)
 .text          0x0000000000000000        0x0 /usr/gcc-arm-none-eabi-10.3-2021.07/bin/../lib/gcc/arm-none-eabi/10.3.1/../../../../arm-none-eabi/lib/thumb/v7e-m/nofp/libg_nano.a(lib_a-fstatr.o)
 .data          0x0000000000000000        0x0 /usr/gcc-arm-none-eabi-10.3-2021.07/bin/../lib/gcc/arm-none-eabi/10.3.1/../../../../arm-none-eabi/lib/thumb/v7e-m/nofp/libg_nano.a(lib_a-fstatr.o)
 .bss           0x0000000000000000        0x0 /usr/gcc-arm-none-eabi-10.3-2021.07/bin/../lib/gcc/arm-none-eabi/10.3.1/../../../../arm-none-eabi/lib/thumb/v7e-m/nofp/libg_nano.a(lib_a-fstatr.o)
 .text          0x0000000000000000        0x0 /usr/gcc-arm-none-eabi-10.3-2021.07/bin/../lib/gcc/arm-none-eabi/10.3.1/../../../../arm-none-eabi/lib/thumb/v7e-m/nofp/libg_nano.a(lib_a-isattyr.o)
 .data          0x0000000000000000        0x0 /usr/gcc-arm-none-eabi-10.3-2021.07/bin/../lib/gcc/arm-none-eabi/10.3.1/../../../../arm-none-eabi/lib/thumb/v7e-m/nofp/libg_nano.a(lib_a-isattyr.o)
 .bss           0x0000000000000000        0x0 /usr/gcc-arm-none-eabi-10.3-2021.07/bin/../lib/gcc/arm-none-eabi/10.3.1/../../../../arm-none-eabi/lib/thumb/v7e-m/nofp/libg_nano.a(lib_a-isattyr.o)
 .text          0x0000000000000000        0x0 /usr/gcc-arm-none-eabi-10.3-2021.07/bin/../lib/gcc/arm-none-eabi/10.3.1/../../../../arm-none-eabi/lib/thumb/v7e-m/nofp/libg_nano.a(lib_a-lseekr.o)
 .data          0x0000000000000000        0x0 /usr/gcc-arm-none-eabi-10.3-2021.07/bin/../lib/gcc/arm-none-eabi/10.3.1/../../../../arm-none-eabi/lib/thumb/v7e-m/nofp/libg_nano.a(lib_a-lseekr.o)
 .bss           0x0000000000000000        0x0 /usr/gcc-arm-none-eabi-10.3-2021.07/bin/../lib/gcc/arm-none-eabi/10.3.1/../../../../arm-none-eabi/lib/thumb/v7e-m/nofp/libg_nano.a(lib_a-lseekr.o)
 .text          0x0000000000000000        0x0 /usr/gcc-arm-none-eabi-10.3-2021.07/bin/../lib/gcc/arm-none-eabi/10.3.1/../../../../arm-none-eabi/lib/thumb/v7e-m/nofp/libg_nano.a(lib_a-mlock.o)
 .data          0x0000000000000000        0x0 /usr/gcc-arm-none-eabi-10.3-2021.07/bin/../lib/gcc/arm-none-eabi/10.3.1/../../../../arm-none-eabi/lib/thumb/v7e-m/nofp/libg_nano.a(lib_a-mlock.o)
 .bss           0x0000000000000000        0x0 /usr/gcc-arm-none-eabi-10.3-2021.07/bin/../lib/gcc/arm-none-eabi/10.3.1/../../../../arm-none-eabi/lib/thumb/v7e-m/nofp/libg_nano.a(lib_a-mlock.o)
 .text          0x0000000000000000        0x0 /usr/gcc-arm-none-eabi-10.3-2021.07/bin/../lib/gcc/arm-none-eabi/10.3.1/../../../../arm-none-eabi/lib/thumb/v7e-m/nofp/libg_nano.a(lib_a-nano-msizer.o)
 .data          0x0000000000000000        0x0 /usr/gcc-arm-none-eabi-10.3-2021.07/bin/../lib/gcc/arm-none-eabi/10.3.1/../../../../arm-none-eabi/lib/thumb/v7e-m/nofp/libg_nano.a(lib_a-nano-msizer.o)
 .bss           0x0000000000000000        0x0 /usr/gcc-arm-none-eabi-10.3-2021.07/bin/../lib/gcc/arm-none-eabi/10.3.1/../../../../arm-none-eabi/lib/thumb/v7e-m/nofp/libg_nano.a(lib_a-nano-msizer.o)
 .text          0x0000000000000000        0x0 /usr/gcc-arm-none-eabi-10.3-2021.07/bin/../lib/gcc/arm-none-eabi/10.3.1/../../../../arm-none-eabi/lib/thumb/v7e-m/nofp/libg_nano.a(lib_a-readr.o)
 .data          0x0000000000000000        0x0 /usr/gcc-arm-none-eabi-10.3-2021.07/bin/../lib/gcc/arm-none-eabi/10.3.1/../../../../arm-none-eabi/lib/thumb/v7e-m/nofp/libg_nano.a(lib_a-readr.o)
 .bss           0x0000000000000000        0x0 /usr/gcc-arm-none-eabi-10.3-2021.07/bin/../lib/gcc/arm-none-eabi/10.3.1/../../../../arm-none-eabi/lib/thumb/v7e-m/nofp/libg_nano.a(lib_a-readr.o)
 .text          0x0000000000000000        0x0 /usr/gcc-arm-none-eabi-10.3-2021.07/bin/../lib/gcc/arm-none-eabi/10.3.1/../../../../arm-none-eabi/lib/thumb/v7e-m/nofp/libg_nano.a(lib_a-reent.o)
 .data          0x0000000000000000        0x0 /usr/gcc-arm-none-eabi-10.3-2021.07/bin/../lib/gcc/arm-none-eabi/10.3.1/../../../../arm-none-eabi/lib/thumb/v7e-m/nofp/libg_nano.a(lib_a-reent.o)
 .bss           0x0000000000000000        0x0 /usr/gcc-arm-none-eabi-10.3-2021.07/bin/../lib/gcc/arm-none-eabi/10.3.1/../../../../arm-none-eabi/lib/thumb/v7e-m/nofp/libg_nano.a(lib_a-reent.o)
 .text.cleanup_glue
                0x0000000000000000       0x1a /usr/gcc-arm-none-eabi-10.3-2021.07/bin/../lib/gcc/arm-none-eabi/10.3.1/../../../../arm-none-eabi/lib/thumb/v7e-m/nofp/libg_nano.a(lib_a-reent.o)
 .text._reclaim_reent
                0x0000000000000000       0xb8 /usr/gcc-arm-none-eabi-10.3-2021.07/bin/../lib/gcc/arm-none-eabi/10.3.1/../../../../arm-none-eabi/lib/thumb/v7e-m/nofp/libg_nano.a(lib_a-reent.o)
 .text          0x0000000000000000        0x0 /usr/gcc-arm-none-eabi-10.3-2021.07/bin/../lib/gcc/arm-none-eabi/10.3.1/../../../../arm-none-eabi/lib/thumb/v7e-m/nofp/libg_nano.a(lib_a-memcmp.o)
 .data          0x0000000000000000        0x0 /usr/gcc-arm-none-eabi-10.3-2021.07/bin/../lib/gcc/arm-none-eabi/10.3.1/../../../../arm-none-eabi/lib/thumb/v7e-m/nofp/libg_nano.a(lib_a-memcmp.o)
 .bss           0x0000000000000000        0x0 /usr/gcc-arm-none-eabi-10.3-2021.07/bin/../lib/gcc/arm-none-eabi/10.3.1/../../../../arm-none-eabi/lib/thumb/v7e-m/nofp/libg_nano.a(lib_a-memcmp.o)
 .text          0x0000000000000000        0x0 /usr/gcc-arm-none-eabi-10.3-2021.07/bin/../lib/gcc/arm-none-eabi/10.3.1/../../../../arm-none-eabi/lib/thumb/v7e-m/nofp/libg_nano.a(lib_a-snprintf.o)
 .data          0x0000000000000000        0x0 /usr/gcc-arm-none-eabi-10.3-2021.07/bin/../lib/gcc/arm-none-eabi/10.3.1/../../../../arm-none-eabi/lib/thumb/v7e-m/nofp/libg_nano.a(lib_a-snprintf.o)
 .bss           0x0000000000000000        0x0 /usr/gcc-arm-none-eabi-10.3-2021.07/bin/../lib/gcc/arm-none-eabi/10.3.1/../../../../arm-none-eabi/lib/thumb/v7e-m/nofp/libg_nano.a(lib_a-snprintf.o)
 .text._snprintf_r
                0x0000000000000000       0x5e /usr/gcc-arm-none-eabi-10.3-2021.07/bin/../lib/gcc/arm-none-eabi/10.3.1/../../../../arm-none-eabi/lib/thumb/v7e-m/nofp/libg_nano.a(lib_a-snprintf.o)
 .text          0x0000000000000000        0x0 /usr/gcc-arm-none-eabi-10.3-2021.07/bin/../lib/gcc/arm-none-eabi/10.3.1/../../../../arm-none-eabi/lib/thumb/v7e-m/nofp/libg_nano.a(lib_a-strncasecmp.o)
 .data          0x0000000000000000        0x0 /usr/gcc-arm-none-eabi-10.3-2021.07/bin/../lib/gcc/arm-none-eabi/10.3.1/../../../../arm-none-eabi/lib/thumb/v7e-m/nofp/libg_nano.a(lib_a-strncasecmp.o)
 .bss           0x0000000000000000        0x0 /usr/gcc-arm-none-eabi-10.3-2021.07/bin/../lib/gcc/arm-none-eabi/10.3.1/../../../../arm-none-eabi/lib/thumb/v7e-m/nofp/libg_nano.a(lib_a-strncasecmp.o)
 .text          0x0000000000000000        0x0 /usr/gcc-arm-none-eabi-10.3-2021.07/bin/../lib/gcc/arm-none-eabi/10.3.1/../../../../arm-none-eabi/lib/thumb/v7e-m/nofp/libg_nano.a(lib_a-vsnprintf.o)
 .data          0x0000000000000000        0x0 /usr/gcc-arm-none-eabi-10.3-2021.07/bin/../lib/gcc/arm-none-eabi/10.3.1/../../../../arm-none-eabi/lib/thumb/v7e-m/nofp/libg_nano.a(lib_a-vsnprintf.o)
 .bss           0x0000000000000000        0x0 /usr/gcc-arm-none-eabi-10.3-2021.07/bin/../lib/gcc/arm-none-eabi/10.3.1/../../../../arm-none-eabi/lib/thumb/v7e-m/nofp/libg_nano.a(lib_a-vsnprintf.o)
 .text          0x0000000000000000        0x0 /usr/gcc-arm-none-eabi-10.3-2021.07/bin/../lib/gcc/arm-none-eabi/10.3.1/../../../../arm-none-eabi/lib/thumb/v7e-m/nofp/libg_nano.a(lib_a-nano-svfprintf.o)
 .data          0x0000000000000000        0x0 /usr/gcc-arm-none-eabi-10.3-2021.07/bin/../lib/gcc/arm-none-eabi/10.3.1/../../../../arm-none-eabi/lib/thumb/v7e-m/nofp/libg_nano.a(lib_a-nano-svfprintf.o)
 .bss           0x0000000000000000        0x0 /usr/gcc-arm-none-eabi-10.3-2021.07/bin/../lib/gcc/arm-none-eabi/10.3.1/../../../../arm-none-eabi/lib/thumb/v7e-m/nofp/libg_nano.a(lib_a-nano-svfprintf.o)
 .text.__ssprint_r
                0x0000000000000000       0xf6 /usr/gcc-arm-none-eabi-10.3-2021.07/bin/../lib/gcc/arm-none-eabi/10.3.1/../../../../arm-none-eabi/lib/thumb/v7e-m/nofp/libg_nano.a(lib_a-nano-svfprintf.o)
 .text          0x0000000000000000      0x254 /usr/gcc-arm-none-eabi-10.3-2021.07/bin/../lib/gcc/arm-none-eabi/10.3.1/thumb/v7e-m/nofp/libgcc.a(_arm_muldf3.o)
 .data          0x0000000000000000        0x0 /usr/gcc-arm-none-eabi-10.3-2021.07/bin/../lib/gcc/arm-none-eabi/10.3.1/thumb/v7e-m/nofp/libgcc.a(_arm_muldf3.o)
 .bss           0x0000000000000000        0x0 /usr/gcc-arm-none-eabi-10.3-2021.07/bin/../lib/gcc/arm-none-eabi/10.3.1/thumb/v7e-m/nofp/libgcc.a(_arm_muldf3.o)
 .debug_frame   0x0000000000000000       0x30 /usr/gcc-arm-none-eabi-10.3-2021.07/bin/../lib/gcc/arm-none-eabi/10.3.1/thumb/v7e-m/nofp/libgcc.a(_arm_muldf3.o)
 .ARM.attributes
                0x0000000000000000       0x1e /usr/gcc-arm-none-eabi-10.3-2021.07/bin/../lib/gcc/arm-none-eabi/10.3.1/thumb/v7e-m/nofp/libgcc.a(_arm_muldf3.o)
 .data          0x0000000000000000        0x0 /usr/gcc-arm-none-eabi-10.3-2021.07/bin/../lib/gcc/arm-none-eabi/10.3.1/thumb/v7e-m/nofp/libgcc.a(_arm_addsubdf3.o)
 .bss           0x0000000000000000        0x0 /usr/gcc-arm-none-eabi-10.3-2021.07/bin/../lib/gcc/arm-none-eabi/10.3.1/thumb/v7e-m/nofp/libgcc.a(_arm_addsubdf3.o)
 .data          0x0000000000000000        0x0 /usr/gcc-arm-none-eabi-10.3-2021.07/bin/../lib/gcc/arm-none-eabi/10.3.1/thumb/v7e-m/nofp/libgcc.a(_arm_muldivdf3.o)
 .bss           0x0000000000000000        0x0 /usr/gcc-arm-none-eabi-10.3-2021.07/bin/../lib/gcc/arm-none-eabi/10.3.1/thumb/v7e-m/nofp/libgcc.a(_arm_muldivdf3.o)
 .data          0x0000000000000000        0x0 /usr/gcc-arm-none-eabi-10.3-2021.07/bin/../lib/gcc/arm-none-eabi/10.3.1/thumb/v7e-m/nofp/libgcc.a(_arm_cmpdf2.o)
 .bss           0x0000000000000000        0x0 /usr/gcc-arm-none-eabi-10.3-2021.07/bin/../lib/gcc/arm-none-eabi/10.3.1/thumb/v7e-m/nofp/libgcc.a(_arm_cmpdf2.o)
 .data          0x0000000000000000        0x0 /usr/gcc-arm-none-eabi-10.3-2021.07/bin/../lib/gcc/arm-none-eabi/10.3.1/thumb/v7e-m/nofp/libgcc.a(_arm_unorddf2.o)
 .bss           0x0000000000000000        0x0 /usr/gcc-arm-none-eabi-10.3-2021.07/bin/../lib/gcc/arm-none-eabi/10.3.1/thumb/v7e-m/nofp/libgcc.a(_arm_unorddf2.o)
 .data          0x0000000000000000        0x0 /usr/gcc-arm-none-eabi-10.3-2021.07/bin/../lib/gcc/arm-none-eabi/10.3.1/thumb/v7e-m/nofp/libgcc.a(_arm_fixdfsi.o)
 .bss           0x0000000000000000        0x0 /usr/gcc-arm-none-eabi-10.3-2021.07/bin/../lib/gcc/arm-none-eabi/10.3.1/thumb/v7e-m/nofp/libgcc.a(_arm_fixdfsi.o)
 .data          0x0000000000000000        0x0 /usr/gcc-arm-none-eabi-10.3-2021.07/bin/../lib/gcc/arm-none-eabi/10.3.1/thumb/v7e-m/nofp/libgcc.a(_arm_fixunsdfsi.o)
 .bss           0x0000000000000000        0x0 /usr/gcc-arm-none-eabi-10.3-2021.07/bin/../lib/gcc/arm-none-eabi/10.3.1/thumb/v7e-m/nofp/libgcc.a(_arm_fixunsdfsi.o)
 .data          0x0000000000000000        0x0 /usr/gcc-arm-none-eabi-10.3-2021.07/bin/../lib/gcc/arm-none-eabi/10.3.1/thumb/v7e-m/nofp/libgcc.a(_arm_truncdfsf2.o)
 .bss           0x0000000000000000        0x0 /usr/gcc-arm-none-eabi-10.3-2021.07/bin/../lib/gcc/arm-none-eabi/10.3.1/thumb/v7e-m/nofp/libgcc.a(_arm_truncdfsf2.o)
 .data          0x0000000000000000        0x0 /usr/gcc-arm-none-eabi-10.3-2021.07/bin/../lib/gcc/arm-none-eabi/10.3.1/thumb/v7e-m/nofp/libgcc.a(_arm_cmpsf2.o)
 .bss           0x0000000000000000        0x0 /usr/gcc-arm-none-eabi-10.3-2021.07/bin/../lib/gcc/arm-none-eabi/10.3.1/thumb/v7e-m/nofp/libgcc.a(_arm_cmpsf2.o)
 .text          0x0000000000000000       0x2c /usr/gcc-arm-none-eabi-10.3-2021.07/bin/../lib/gcc/arm-none-eabi/10.3.1/thumb/v7e-m/nofp/libgcc.a(_arm_unordsf2.o)
 .data          0x0000000000000000        0x0 /usr/gcc-arm-none-eabi-10.3-2021.07/bin/../lib/gcc/arm-none-eabi/10.3.1/thumb/v7e-m/nofp/libgcc.a(_arm_unordsf2.o)
 .bss           0x0000000000000000        0x0 /usr/gcc-arm-none-eabi-10.3-2021.07/bin/../lib/gcc/arm-none-eabi/10.3.1/thumb/v7e-m/nofp/libgcc.a(_arm_unordsf2.o)
 .debug_frame   0x0000000000000000       0x24 /usr/gcc-arm-none-eabi-10.3-2021.07/bin/../lib/gcc/arm-none-eabi/10.3.1/thumb/v7e-m/nofp/libgcc.a(_arm_unordsf2.o)
 .ARM.attributes
                0x0000000000000000       0x1e /usr/gcc-arm-none-eabi-10.3-2021.07/bin/../lib/gcc/arm-none-eabi/10.3.1/thumb/v7e-m/nofp/libgcc.a(_arm_unordsf2.o)
 .data          0x0000000000000000        0x0 /usr/gcc-arm-none-eabi-10.3-2021.07/bin/../lib/gcc/arm-none-eabi/10.3.1/thumb/v7e-m/nofp/libgcc.a(_aeabi_uldivmod.o)
 .bss           0x0000000000000000        0x0 /usr/gcc-arm-none-eabi-10.3-2021.07/bin/../lib/gcc/arm-none-eabi/10.3.1/thumb/v7e-m/nofp/libgcc.a(_aeabi_uldivmod.o)
 .data          0x0000000000000000        0x0 /usr/gcc-arm-none-eabi-10.3-2021.07/bin/../lib/gcc/arm-none-eabi/10.3.1/thumb/v7e-m/nofp/libgcc.a(_fixdfdi.o)
 .bss           0x0000000000000000        0x0 /usr/gcc-arm-none-eabi-10.3-2021.07/bin/../lib/gcc/arm-none-eabi/10.3.1/thumb/v7e-m/nofp/libgcc.a(_fixdfdi.o)
 .data          0x0000000000000000        0x0 /usr/gcc-arm-none-eabi-10.3-2021.07/bin/../lib/gcc/arm-none-eabi/10.3.1/thumb/v7e-m/nofp/libgcc.a(_fixunsdfdi.o)
 .bss           0x0000000000000000        0x0 /usr/gcc-arm-none-eabi-10.3-2021.07/bin/../lib/gcc/arm-none-eabi/10.3.1/thumb/v7e-m/nofp/libgcc.a(_fixunsdfdi.o)
 .data          0x0000000000000000        0x0 /usr/gcc-arm-none-eabi-10.3-2021.07/bin/../lib/gcc/arm-none-eabi/10.3.1/thumb/v7e-m/nofp/libgcc.a(_udivmoddi4.o)
 .bss           0x0000000000000000        0x0 /usr/gcc-arm-none-eabi-10.3-2021.07/bin/../lib/gcc/arm-none-eabi/10.3.1/thumb/v7e-m/nofp/libgcc.a(_udivmoddi4.o)
 .ARM.extab     0x0000000000000000        0x0 /usr/gcc-arm-none-eabi-10.3-2021.07/bin/../lib/gcc/arm-none-eabi/10.3.1/thumb/v7e-m/nofp/libgcc.a(_udivmoddi4.o)
 .data          0x0000000000000000        0x0 /usr/gcc-arm-none-eabi-10.3-2021.07/bin/../lib/gcc/arm-none-eabi/10.3.1/thumb/v7e-m/nofp/libgcc.a(_dvmd_tls.o)
 .bss           0x0000000000000000        0x0 /usr/gcc-arm-none-eabi-10.3-2021.07/bin/../lib/gcc/arm-none-eabi/10.3.1/thumb/v7e-m/nofp/libgcc.a(_dvmd_tls.o)
 .text          0x0000000000000000        0x0 /usr/gcc-arm-none-eabi-10.3-2021.07/bin/../lib/gcc/arm-none-eabi/10.3.1/../../../../arm-none-eabi/lib/thumb/v7e-m/nofp/libnosys.a(close.o)
 .data          0x0000000000000000        0x0 /usr/gcc-arm-none-eabi-10.3-2021.07/bin/../lib/gcc/arm-none-eabi/10.3.1/../../../../arm-none-eabi/lib/thumb/v7e-m/nofp/libnosys.a(close.o)
 .bss           0x0000000000000000        0x0 /usr/gcc-arm-none-eabi-10.3-2021.07/bin/../lib/gcc/arm-none-eabi/10.3.1/../../../../arm-none-eabi/lib/thumb/v7e-m/nofp/libnosys.a(close.o)
 .text          0x0000000000000000        0x0 /usr/gcc-arm-none-eabi-10.3-2021.07/bin/../lib/gcc/arm-none-eabi/10.3.1/../../../../arm-none-eabi/lib/thumb/v7e-m/nofp/libnosys.a(fstat.o)
 .data          0x0000000000000000        0x0 /usr/gcc-arm-none-eabi-10.3-2021.07/bin/../lib/gcc/arm-none-eabi/10.3.1/../../../../arm-none-eabi/lib/thumb/v7e-m/nofp/libnosys.a(fstat.o)
 .bss           0x0000000000000000        0x0 /usr/gcc-arm-none-eabi-10.3-2021.07/bin/../lib/gcc/arm-none-eabi/10.3.1/../../../../arm-none-eabi/lib/thumb/v7e-m/nofp/libnosys.a(fstat.o)
 .text          0x0000000000000000        0x0 /usr/gcc-arm-none-eabi-10.3-2021.07/bin/../lib/gcc/arm-none-eabi/10.3.1/../../../../arm-none-eabi/lib/thumb/v7e-m/nofp/libnosys.a(getpid.o)
 .data          0x0000000000000000        0x0 /usr/gcc-arm-none-eabi-10.3-2021.07/bin/../lib/gcc/arm-none-eabi/10.3.1/../../../../arm-none-eabi/lib/thumb/v7e-m/nofp/libnosys.a(getpid.o)
 .bss           0x0000000000000000        0x0 /usr/gcc-arm-none-eabi-10.3-2021.07/bin/../lib/gcc/arm-none-eabi/10.3.1/../../../../arm-none-eabi/lib/thumb/v7e-m/nofp/libnosys.a(getpid.o)
 .text          0x0000000000000000        0x0 /usr/gcc-arm-none-eabi-10.3-2021.07/bin/../lib/gcc/arm-none-eabi/10.3.1/../../../../arm-none-eabi/lib/thumb/v7e-m/nofp/libnosys.a(isatty.o)
 .data          0x0000000000000000        0x0 /usr/gcc-arm-none-eabi-10.3-2021.07/bin/../lib/gcc/arm-none-eabi/10.3.1/../../../../arm-none-eabi/lib/thumb/v7e-m/nofp/libnosys.a(isatty.o)
 .bss           0x0000000000000000        0x0 /usr/gcc-arm-none-eabi-10.3-2021.07/bin/../lib/gcc/arm-none-eabi/10.3.1/../../../../arm-none-eabi/lib/thumb/v7e-m/nofp/libnosys.a(isatty.o)
 .text          0x0000000000000000        0x0 /usr/gcc-arm-none-eabi-10.3-2021.07/bin/../lib/gcc/arm-none-eabi/10.3.1/../../../../arm-none-eabi/lib/thumb/v7e-m/nofp/libnosys.a(kill.o)
 .data          0x0000000000000000        0x0 /usr/gcc-arm-none-eabi-10.3-2021.07/bin/../lib/gcc/arm-none-eabi/10.3.1/../../../../arm-none-eabi/lib/thumb/v7e-m/nofp/libnosys.a(kill.o)
 .bss           0x0000000000000000        0x0 /usr/gcc-arm-none-eabi-10.3-2021.07/bin/../lib/gcc/arm-none-eabi/10.3.1/../../../../arm-none-eabi/lib/thumb/v7e-m/nofp/libnosys.a(kill.o)
 .text          0x0000000000000000        0x0 /usr/gcc-arm-none-eabi-10.3-2021.07/bin/../lib/gcc/arm-none-eabi/10.3.1/../../../../arm-none-eabi/lib/thumb/v7e-m/nofp/libnosys.a(lseek.o)
 .data          0x0000000000000000        0x0 /usr/gcc-arm-none-eabi-10.3-2021.07/bin/../lib/gcc/arm-none-eabi/10.3.1/../../../../arm-none-eabi/lib/thumb/v7e-m/nofp/libnosys.a(lseek.o)
 .bss           0x0000000000000000        0x0 /usr/gcc-arm-none-eabi-10.3-2021.07/bin/../lib/gcc/arm-none-eabi/10.3.1/../../../../arm-none-eabi/lib/thumb/v7e-m/nofp/libnosys.a(lseek.o)
 .text          0x0000000000000000        0x0 /usr/gcc-arm-none-eabi-10.3-2021.07/bin/../lib/gcc/arm-none-eabi/10.3.1/../../../../arm-none-eabi/lib/thumb/v7e-m/nofp/libnosys.a(read.o)
 .data          0x0000000000000000        0x0 /usr/gcc-arm-none-eabi-10.3-2021.07/bin/../lib/gcc/arm-none-eabi/10.3.1/../../../../arm-none-eabi/lib/thumb/v7e-m/nofp/libnosys.a(read.o)
 .bss           0x0000000000000000        0x0 /usr/gcc-arm-none-eabi-10.3-2021.07/bin/../lib/gcc/arm-none-eabi/10.3.1/../../../../arm-none-eabi/lib/thumb/v7e-m/nofp/libnosys.a(read.o)
 .text          0x0000000000000000        0x0 /usr/gcc-arm-none-eabi-10.3-2021.07/bin/../lib/gcc/arm-none-eabi/10.3.1/../../../../arm-none-eabi/lib/thumb/v7e-m/nofp/libnosys.a(write.o)
 .data          0x0000000000000000        0x0 /usr/gcc-arm-none-eabi-10.3-2021.07/bin/../lib/gcc/arm-none-eabi/10.3.1/../../../../arm-none-eabi/lib/thumb/v7e-m/nofp/libnosys.a(write.o)
 .bss           0x0000000000000000        0x0 /usr/gcc-arm-none-eabi-10.3-2021.07/bin/../lib/gcc/arm-none-eabi/10.3.1/../../../../arm-none-eabi/lib/thumb/v7e-m/nofp/libnosys.a(write.o)
 .text          0x0000000000000000        0x0 /usr/gcc-arm-none-eabi-10.3-2021.07/bin/../lib/gcc/arm-none-eabi/10.3.1/../../../../arm-none-eabi/lib/thumb/v7e-m/nofp/libnosys.a(_exit.o)
 .data          0x0000000000000000        0x0 /usr/gcc-arm-none-eabi-10.3-2021.07/bin/../lib/gcc/arm-none-eabi/10.3.1/../../../../arm-none-eabi/lib/thumb/v7e-m/nofp/libnosys.a(_exit.o)
 .bss           0x0000000000000000        0x0 /usr/gcc-arm-none-eabi-10.3-2021.07/bin/../lib/gcc/arm-none-eabi/10.3.1/../../../../arm-none-eabi/lib/thumb/v7e-m/nofp/libnosys.a(_exit.o)
 .text          0x0000000000000000      0x168 /usr/gcc-arm-none-eabi-10.3-2021.07/bin/../lib/gcc/arm-none-eabi/10.3.1/thumb/v7e-m/nofp/libgcc.a(_arm_mulsf3.o)
 .data          0x0000000000000000        0x0 /usr/gcc-arm-none-eabi-10.3-2021.07/bin/../lib/gcc/arm-none-eabi/10.3.1/thumb/v7e-m/nofp/libgcc.a(_arm_mulsf3.o)
 .bss           0x0000000000000000        0x0 /usr/gcc-arm-none-eabi-10.3-2021.07/bin/../lib/gcc/arm-none-eabi/10.3.1/thumb/v7e-m/nofp/libgcc.a(_arm_mulsf3.o)
 .debug_frame   0x0000000000000000       0x24 /usr/gcc-arm-none-eabi-10.3-2021.07/bin/../lib/gcc/arm-none-eabi/10.3.1/thumb/v7e-m/nofp/libgcc.a(_arm_mulsf3.o)
 .ARM.attributes
                0x0000000000000000       0x1e /usr/gcc-arm-none-eabi-10.3-2021.07/bin/../lib/gcc/arm-none-eabi/10.3.1/thumb/v7e-m/nofp/libgcc.a(_arm_mulsf3.o)
 .data          0x0000000000000000        0x0 /usr/gcc-arm-none-eabi-10.3-2021.07/bin/../lib/gcc/arm-none-eabi/10.3.1/thumb/v7e-m/nofp/libgcc.a(_arm_addsubsf3.o)
 .bss           0x0000000000000000        0x0 /usr/gcc-arm-none-eabi-10.3-2021.07/bin/../lib/gcc/arm-none-eabi/10.3.1/thumb/v7e-m/nofp/libgcc.a(_arm_addsubsf3.o)
 .data          0x0000000000000000        0x0 /usr/gcc-arm-none-eabi-10.3-2021.07/bin/../lib/gcc/arm-none-eabi/10.3.1/thumb/v7e-m/nofp/libgcc.a(_arm_muldivsf3.o)
 .bss           0x0000000000000000        0x0 /usr/gcc-arm-none-eabi-10.3-2021.07/bin/../lib/gcc/arm-none-eabi/10.3.1/thumb/v7e-m/nofp/libgcc.a(_arm_muldivsf3.o)
 .data          0x0000000000000000        0x0 /usr/gcc-arm-none-eabi-10.3-2021.07/bin/../lib/gcc/arm-none-eabi/10.3.1/thumb/v7e-m/nofp/libgcc.a(_arm_fixsfsi.o)
 .bss           0x0000000000000000        0x0 /usr/gcc-arm-none-eabi-10.3-2021.07/bin/../lib/gcc/arm-none-eabi/10.3.1/thumb/v7e-m/nofp/libgcc.a(_arm_fixsfsi.o)
 .data          0x0000000000000000        0x0 /usr/gcc-arm-none-eabi-10.3-2021.07/bin/../lib/gcc/arm-none-eabi/10.3.1/thumb/v7e-m/nofp/libgcc.a(_arm_fixunssfsi.o)
 .bss           0x0000000000000000        0x0 /usr/gcc-arm-none-eabi-10.3-2021.07/bin/../lib/gcc/arm-none-eabi/10.3.1/thumb/v7e-m/nofp/libgcc.a(_arm_fixunssfsi.o)
 .text          0x0000000000000000       0xa0 /usr/gcc-arm-none-eabi-10.3-2021.07/bin/../lib/gcc/arm-none-eabi/10.3.1/thumb/v7e-m/nofp/libgcc.a(_aeabi_ldivmod.o)
 .data          0x0000000000000000        0x0 /usr/gcc-arm-none-eabi-10.3-2021.07/bin/../lib/gcc/arm-none-eabi/10.3.1/thumb/v7e-m/nofp/libgcc.a(_aeabi_ldivmod.o)
 .bss           0x0000000000000000        0x0 /usr/gcc-arm-none-eabi-10.3-2021.07/bin/../lib/gcc/arm-none-eabi/10.3.1/thumb/v7e-m/nofp/libgcc.a(_aeabi_ldivmod.o)
 .debug_frame   0x0000000000000000       0x44 /usr/gcc-arm-none-eabi-10.3-2021.07/bin/../lib/gcc/arm-none-eabi/10.3.1/thumb/v7e-m/nofp/libgcc.a(_aeabi_ldivmod.o)
 .ARM.attributes
                0x0000000000000000       0x1e /usr/gcc-arm-none-eabi-10.3-2021.07/bin/../lib/gcc/arm-none-eabi/10.3.1/thumb/v7e-m/nofp/libgcc.a(_aeabi_ldivmod.o)
 .text          0x0000000000000000        0x0 /usr/gcc-arm-none-eabi-10.3-2021.07/bin/../lib/gcc/arm-none-eabi/10.3.1/thumb/v7e-m/nofp/crtend.o
 .data          0x0000000000000000        0x0 /usr/gcc-arm-none-eabi-10.3-2021.07/bin/../lib/gcc/arm-none-eabi/10.3.1/thumb/v7e-m/nofp/crtend.o
 .bss           0x0000000000000000        0x0 /usr/gcc-arm-none-eabi-10.3-2021.07/bin/../lib/gcc/arm-none-eabi/10.3.1/thumb/v7e-m/nofp/crtend.o
 .rodata        0x0000000000000000       0x24 /usr/gcc-arm-none-eabi-10.3-2021.07/bin/../lib/gcc/arm-none-eabi/10.3.1/thumb/v7e-m/nofp/crtend.o
 .eh_frame      0x0000000000000000        0x4 /usr/gcc-arm-none-eabi-10.3-2021.07/bin/../lib/gcc/arm-none-eabi/10.3.1/thumb/v7e-m/nofp/crtend.o
 .ARM.attributes
                0x0000000000000000       0x2e /usr/gcc-arm-none-eabi-10.3-2021.07/bin/../lib/gcc/arm-none-eabi/10.3.1/thumb/v7e-m/nofp/crtend.o
 .text          0x0000000000000000        0x0 /usr/gcc-arm-none-eabi-10.3-2021.07/bin/../lib/gcc/arm-none-eabi/10.3.1/thumb/v7e-m/nofp/crtn.o
 .data          0x0000000000000000        0x0 /usr/gcc-arm-none-eabi-10.3-2021.07/bin/../lib/gcc/arm-none-eabi/10.3.1/thumb/v7e-m/nofp/crtn.o
 .bss           0x0000000000000000        0x0 /usr/gcc-arm-none-eabi-10.3-2021.07/bin/../lib/gcc/arm-none-eabi/10.3.1/thumb/v7e-m/nofp/crtn.o
 .text          0x0000000000000000        0x0 /usr/gcc-arm-none-eabi-10.3-2021.07/bin/../lib/gcc/arm-none-eabi/10.3.1/../../../../arm-none-eabi/lib/thumb/v7e-m/nofp/libm.a(lib_a-s_cos.o)
 .data          0x0000000000000000        0x0 /usr/gcc-arm-none-eabi-10.3-2021.07/bin/../lib/gcc/arm-none-eabi/10.3.1/../../../../arm-none-eabi/lib/thumb/v7e-m/nofp/libm.a(lib_a-s_cos.o)
 .bss           0x0000000000000000        0x0 /usr/gcc-arm-none-eabi-10.3-2021.07/bin/../lib/gcc/arm-none-eabi/10.3.1/../../../../arm-none-eabi/lib/thumb/v7e-m/nofp/libm.a(lib_a-s_cos.o)
 .text.cos      0x0000000000000000       0xa0 /usr/gcc-arm-none-eabi-10.3-2021.07/bin/../lib/gcc/arm-none-eabi/10.3.1/../../../../arm-none-eabi/lib/thumb/v7e-m/nofp/libm.a(lib_a-s_cos.o)
 .debug_frame   0x0000000000000000       0x3c /usr/gcc-arm-none-eabi-10.3-2021.07/bin/../lib/gcc/arm-none-eabi/10.3.1/../../../../arm-none-eabi/lib/thumb/v7e-m/nofp/libm.a(lib_a-s_cos.o)
 .ARM.attributes
                0x0000000000000000       0x2e /usr/gcc-arm-none-eabi-10.3-2021.07/bin/../lib/gcc/arm-none-eabi/10.3.1/../../../../arm-none-eabi/lib/thumb/v7e-m/nofp/libm.a(lib_a-s_cos.o)
 .text          0x0000000000000000        0x0 /usr/gcc-arm-none-eabi-10.3-2021.07/bin/../lib/gcc/arm-none-eabi/10.3.1/../../../../arm-none-eabi/lib/thumb/v7e-m/nofp/libm.a(lib_a-s_floor.o)
 .data          0x0000000000000000        0x0 /usr/gcc-arm-none-eabi-10.3-2021.07/bin/../lib/gcc/arm-none-eabi/10.3.1/../../../../arm-none-eabi/lib/thumb/v7e-m/nofp/libm.a(lib_a-s_floor.o)
 .bss           0x0000000000000000        0x0 /usr/gcc-arm-none-eabi-10.3-2021.07/bin/../lib/gcc/arm-none-eabi/10.3.1/../../../../arm-none-eabi/lib/thumb/v7e-m/nofp/libm.a(lib_a-s_floor.o)
 .debug_frame   0x0000000000000000       0x30 /usr/gcc-arm-none-eabi-10.3-2021.07/bin/../lib/gcc/arm-none-eabi/10.3.1/../../../../arm-none-eabi/lib/thumb/v7e-m/nofp/libm.a(lib_a-s_floor.o)
 .ARM.attributes
                0x0000000000000000       0x2e /usr/gcc-arm-none-eabi-10.3-2021.07/bin/../lib/gcc/arm-none-eabi/10.3.1/../../../../arm-none-eabi/lib/thumb/v7e-m/nofp/libm.a(lib_a-s_floor.o)
 .text          0x0000000000000000        0x0 /usr/gcc-arm-none-eabi-10.3-2021.07/bin/../lib/gcc/arm-none-eabi/10.3.1/../../../../arm-none-eabi/lib/thumb/v7e-m/nofp/libm.a(lib_a-s_round.o)
 .data          0x0000000000000000        0x0 /usr/gcc-arm-none-eabi-10.3-2021.07/bin/../lib/gcc/arm-none-eabi/10.3.1/../../../../arm-none-eabi/lib/thumb/v7e-m/nofp/libm.a(lib_a-s_round.o)
 .bss           0x0000000000000000        0x0 /usr/gcc-arm-none-eabi-10.3-2021.07/bin/../lib/gcc/arm-none-eabi/10.3.1/../../../../arm-none-eabi/lib/thumb/v7e-m/nofp/libm.a(lib_a-s_round.o)
 .debug_frame   0x0000000000000000       0x2c /usr/gcc-arm-none-eabi-10.3-2021.07/bin/../lib/gcc/arm-none-eabi/10.3.1/../../../../arm-none-eabi/lib/thumb/v7e-m/nofp/libm.a(lib_a-s_round.o)
 .ARM.attributes
                0x0000000000000000       0x2e /usr/gcc-arm-none-eabi-10.3-2021.07/bin/../lib/gcc/arm-none-eabi/10.3.1/../../../../arm-none-eabi/lib/thumb/v7e-m/nofp/libm.a(lib_a-s_round.o)
 .text          0x0000000000000000        0x0 /usr/gcc-arm-none-eabi-10.3-2021.07/bin/../lib/gcc/arm-none-eabi/10.3.1/../../../../arm-none-eabi/lib/thumb/v7e-m/nofp/libm.a(lib_a-s_sin.o)
 .data          0x0000000000000000        0x0 /usr/gcc-arm-none-eabi-10.3-2021.07/bin/../lib/gcc/arm-none-eabi/10.3.1/../../../../arm-none-eabi/lib/thumb/v7e-m/nofp/libm.a(lib_a-s_sin.o)
 .bss           0x0000000000000000        0x0 /usr/gcc-arm-none-eabi-10.3-2021.07/bin/../lib/gcc/arm-none-eabi/10.3.1/../../../../arm-none-eabi/lib/thumb/v7e-m/nofp/libm.a(lib_a-s_sin.o)
 .text.sin      0x0000000000000000       0xb0 /usr/gcc-arm-none-eabi-10.3-2021.07/bin/../lib/gcc/arm-none-eabi/10.3.1/../../../../arm-none-eabi/lib/thumb/v7e-m/nofp/libm.a(lib_a-s_sin.o)
 .debug_frame   0x0000000000000000       0x38 /usr/gcc-arm-none-eabi-10.3-2021.07/bin/../lib/gcc/arm-none-eabi/10.3.1/../../../../arm-none-eabi/lib/thumb/v7e-m/nofp/libm.a(lib_a-s_sin.o)
 .ARM.attributes
                0x0000000000000000       0x2e /usr/gcc-arm-none-eabi-10.3-2021.07/bin/../lib/gcc/arm-none-eabi/10.3.1/../../../../arm-none-eabi/lib/thumb/v7e-m/nofp/libm.a(lib_a-s_sin.o)
 .text          0x0000000000000000        0x0 /usr/gcc-arm-none-eabi-10.3-2021.07/bin/../lib/gcc/arm-none-eabi/10.3.1/../../../../arm-none-eabi/lib/thumb/v7e-m/nofp/libm.a(lib_a-w_atan2.o)
 .data          0x0000000000000000        0x0 /usr/gcc-arm-none-eabi-10.3-2021.07/bin/../lib/gcc/arm-none-eabi/10.3.1/../../../../arm-none-eabi/lib/thumb/v7e-m/nofp/libm.a(lib_a-w_atan2.o)
 .bss           0x0000000000000000        0x0 /usr/gcc-arm-none-eabi-10.3-2021.07/bin/../lib/gcc/arm-none-eabi/10.3.1/../../../../arm-none-eabi/lib/thumb/v7e-m/nofp/libm.a(lib_a-w_atan2.o)
 .text.atan2    0x0000000000000000        0x4 /usr/gcc-arm-none-eabi-10.3-2021.07/bin/../lib/gcc/arm-none-eabi/10.3.1/../../../../arm-none-eabi/lib/thumb/v7e-m/nofp/libm.a(lib_a-w_atan2.o)
 .debug_frame   0x0000000000000000       0x20 /usr/gcc-arm-none-eabi-10.3-2021.07/bin/../lib/gcc/arm-none-eabi/10.3.1/../../../../arm-none-eabi/lib/thumb/v7e-m/nofp/libm.a(lib_a-w_atan2.o)
 .ARM.attributes
                0x0000000000000000       0x2e /usr/gcc-arm-none-eabi-10.3-2021.07/bin/../lib/gcc/arm-none-eabi/10.3.1/../../../../arm-none-eabi/lib/thumb/v7e-m/nofp/libm.a(lib_a-w_atan2.o)
 .text          0x0000000000000000        0x0 /usr/gcc-arm-none-eabi-10.3-2021.07/bin/../lib/gcc/arm-none-eabi/10.3.1/../../../../arm-none-eabi/lib/thumb/v7e-m/nofp/libm.a(lib_a-w_sqrt.o)
 .data          0x0000000000000000        0x0 /usr/gcc-arm-none-eabi-10.3-2021.07/bin/../lib/gcc/arm-none-eabi/10.3.1/../../../../arm-none-eabi/lib/thumb/v7e-m/nofp/libm.a(lib_a-w_sqrt.o)
 .bss           0x0000000000000000        0x0 /usr/gcc-arm-none-eabi-10.3-2021.07/bin/../lib/gcc/arm-none-eabi/10.3.1/../../../../arm-none-eabi/lib/thumb/v7e-m/nofp/libm.a(lib_a-w_sqrt.o)
 .text.sqrt     0x0000000000000000       0x50 /usr/gcc-arm-none-eabi-10.3-2021.07/bin/../lib/gcc/arm-none-eabi/10.3.1/../../../../arm-none-eabi/lib/thumb/v7e-m/nofp/libm.a(lib_a-w_sqrt.o)
 .debug_frame   0x0000000000000000       0x30 /usr/gcc-arm-none-eabi-10.3-2021.07/bin/../lib/gcc/arm-none-eabi/10.3.1/../../../../arm-none-eabi/lib/thumb/v7e-m/nofp/libm.a(lib_a-w_sqrt.o)
 .ARM.attributes
                0x0000000000000000       0x2e /usr/gcc-arm-none-eabi-10.3-2021.07/bin/../lib/gcc/arm-none-eabi/10.3.1/../../../../arm-none-eabi/lib/thumb/v7e-m/nofp/libm.a(lib_a-w_sqrt.o)
 .text          0x0000000000000000        0x0 /usr/gcc-arm-none-eabi-10.3-2021.07/bin/../lib/gcc/arm-none-eabi/10.3.1/../../../../arm-none-eabi/lib/thumb/v7e-m/nofp/libm.a(lib_a-e_atan2.o)
 .data          0x0000000000000000        0x0 /usr/gcc-arm-none-eabi-10.3-2021.07/bin/../lib/gcc/arm-none-eabi/10.3.1/../../../../arm-none-eabi/lib/thumb/v7e-m/nofp/libm.a(lib_a-e_atan2.o)
 .bss           0x0000000000000000        0x0 /usr/gcc-arm-none-eabi-10.3-2021.07/bin/../lib/gcc/arm-none-eabi/10.3.1/../../../../arm-none-eabi/lib/thumb/v7e-m/nofp/libm.a(lib_a-e_atan2.o)
 .text.__ieee754_atan2
                0x0000000000000000      0x194 /usr/gcc-arm-none-eabi-10.3-2021.07/bin/../lib/gcc/arm-none-eabi/10.3.1/../../../../arm-none-eabi/lib/thumb/v7e-m/nofp/libm.a(lib_a-e_atan2.o)
 .rodata.CSWTCH.8
                0x0000000000000000       0x18 /usr/gcc-arm-none-eabi-10.3-2021.07/bin/../lib/gcc/arm-none-eabi/10.3.1/../../../../arm-none-eabi/lib/thumb/v7e-m/nofp/libm.a(lib_a-e_atan2.o)
 .rodata.CSWTCH.9
                0x0000000000000000       0x18 /usr/gcc-arm-none-eabi-10.3-2021.07/bin/../lib/gcc/arm-none-eabi/10.3.1/../../../../arm-none-eabi/lib/thumb/v7e-m/nofp/libm.a(lib_a-e_atan2.o)
 .debug_frame   0x0000000000000000       0x48 /usr/gcc-arm-none-eabi-10.3-2021.07/bin/../lib/gcc/arm-none-eabi/10.3.1/../../../../arm-none-eabi/lib/thumb/v7e-m/nofp/libm.a(lib_a-e_atan2.o)
 .ARM.attributes
                0x0000000000000000       0x2e /usr/gcc-arm-none-eabi-10.3-2021.07/bin/../lib/gcc/arm-none-eabi/10.3.1/../../../../arm-none-eabi/lib/thumb/v7e-m/nofp/libm.a(lib_a-e_atan2.o)
 .text          0x0000000000000000        0x0 /usr/gcc-arm-none-eabi-10.3-2021.07/bin/../lib/gcc/arm-none-eabi/10.3.1/../../../../arm-none-eabi/lib/thumb/v7e-m/nofp/libm.a(lib_a-e_rem_pio2.o)
 .data          0x0000000000000000        0x0 /usr/gcc-arm-none-eabi-10.3-2021.07/bin/../lib/gcc/arm-none-eabi/10.3.1/../../../../arm-none-eabi/lib/thumb/v7e-m/nofp/libm.a(lib_a-e_rem_pio2.o)
 .bss           0x0000000000000000        0x0 /usr/gcc-arm-none-eabi-10.3-2021.07/bin/../lib/gcc/arm-none-eabi/10.3.1/../../../../arm-none-eabi/lib/thumb/v7e-m/nofp/libm.a(lib_a-e_rem_pio2.o)
 .text.__ieee754_rem_pio2
                0x0000000000000000      0x454 /usr/gcc-arm-none-eabi-10.3-2021.07/bin/../lib/gcc/arm-none-eabi/10.3.1/../../../../arm-none-eabi/lib/thumb/v7e-m/nofp/libm.a(lib_a-e_rem_pio2.o)
 .rodata.npio2_hw
                0x0000000000000000       0x80 /usr/gcc-arm-none-eabi-10.3-2021.07/bin/../lib/gcc/arm-none-eabi/10.3.1/../../../../arm-none-eabi/lib/thumb/v7e-m/nofp/libm.a(lib_a-e_rem_pio2.o)
 .rodata.two_over_pi
                0x0000000000000000      0x108 /usr/gcc-arm-none-eabi-10.3-2021.07/bin/../lib/gcc/arm-none-eabi/10.3.1/../../../../arm-none-eabi/lib/thumb/v7e-m/nofp/libm.a(lib_a-e_rem_pio2.o)
 .debug_frame   0x0000000000000000       0x4c /usr/gcc-arm-none-eabi-10.3-2021.07/bin/../lib/gcc/arm-none-eabi/10.3.1/../../../../arm-none-eabi/lib/thumb/v7e-m/nofp/libm.a(lib_a-e_rem_pio2.o)
 .ARM.attributes
                0x0000000000000000       0x2e /usr/gcc-arm-none-eabi-10.3-2021.07/bin/../lib/gcc/arm-none-eabi/10.3.1/../../../../arm-none-eabi/lib/thumb/v7e-m/nofp/libm.a(lib_a-e_rem_pio2.o)
 .text          0x0000000000000000        0x0 /usr/gcc-arm-none-eabi-10.3-2021.07/bin/../lib/gcc/arm-none-eabi/10.3.1/../../../../arm-none-eabi/lib/thumb/v7e-m/nofp/libm.a(lib_a-e_sqrt.o)
 .data          0x0000000000000000        0x0 /usr/gcc-arm-none-eabi-10.3-2021.07/bin/../lib/gcc/arm-none-eabi/10.3.1/../../../../arm-none-eabi/lib/thumb/v7e-m/nofp/libm.a(lib_a-e_sqrt.o)
 .bss           0x0000000000000000        0x0 /usr/gcc-arm-none-eabi-10.3-2021.07/bin/../lib/gcc/arm-none-eabi/10.3.1/../../../../arm-none-eabi/lib/thumb/v7e-m/nofp/libm.a(lib_a-e_sqrt.o)
 .text.__ieee754_sqrt
                0x0000000000000000      0x18c /usr/gcc-arm-none-eabi-10.3-2021.07/bin/../lib/gcc/arm-none-eabi/10.3.1/../../../../arm-none-eabi/lib/thumb/v7e-m/nofp/libm.a(lib_a-e_sqrt.o)
 .debug_frame   0x0000000000000000       0x34 /usr/gcc-arm-none-eabi-10.3-2021.07/bin/../lib/gcc/arm-none-eabi/10.3.1/../../../../arm-none-eabi/lib/thumb/v7e-m/nofp/libm.a(lib_a-e_sqrt.o)
 .ARM.attributes
                0x0000000000000000       0x2e /usr/gcc-arm-none-eabi-10.3-2021.07/bin/../lib/gcc/arm-none-eabi/10.3.1/../../../../arm-none-eabi/lib/thumb/v7e-m/nofp/libm.a(lib_a-e_sqrt.o)
 .text          0x0000000000000000        0x0 /usr/gcc-arm-none-eabi-10.3-2021.07/bin/../lib/gcc/arm-none-eabi/10.3.1/../../../../arm-none-eabi/lib/thumb/v7e-m/nofp/libm.a(lib_a-k_cos.o)
 .data          0x0000000000000000        0x0 /usr/gcc-arm-none-eabi-10.3-2021.07/bin/../lib/gcc/arm-none-eabi/10.3.1/../../../../arm-none-eabi/lib/thumb/v7e-m/nofp/libm.a(lib_a-k_cos.o)
 .bss           0x0000000000000000        0x0 /usr/gcc-arm-none-eabi-10.3-2021.07/bin/../lib/gcc/arm-none-eabi/10.3.1/../../../../arm-none-eabi/lib/thumb/v7e-m/nofp/libm.a(lib_a-k_cos.o)
 .text.__kernel_cos
                0x0000000000000000      0x260 /usr/gcc-arm-none-eabi-10.3-2021.07/bin/../lib/gcc/arm-none-eabi/10.3.1/../../../../arm-none-eabi/lib/thumb/v7e-m/nofp/libm.a(lib_a-k_cos.o)
 .debug_frame   0x0000000000000000       0x4c /usr/gcc-arm-none-eabi-10.3-2021.07/bin/../lib/gcc/arm-none-eabi/10.3.1/../../../../arm-none-eabi/lib/thumb/v7e-m/nofp/libm.a(lib_a-k_cos.o)
 .ARM.attributes
                0x0000000000000000       0x2e /usr/gcc-arm-none-eabi-10.3-2021.07/bin/../lib/gcc/arm-none-eabi/10.3.1/../../../../arm-none-eabi/lib/thumb/v7e-m/nofp/libm.a(lib_a-k_cos.o)
 .text          0x0000000000000000        0x0 /usr/gcc-arm-none-eabi-10.3-2021.07/bin/../lib/gcc/arm-none-eabi/10.3.1/../../../../arm-none-eabi/lib/thumb/v7e-m/nofp/libm.a(lib_a-k_rem_pio2.o)
 .data          0x0000000000000000        0x0 /usr/gcc-arm-none-eabi-10.3-2021.07/bin/../lib/gcc/arm-none-eabi/10.3.1/../../../../arm-none-eabi/lib/thumb/v7e-m/nofp/libm.a(lib_a-k_rem_pio2.o)
 .bss           0x0000000000000000        0x0 /usr/gcc-arm-none-eabi-10.3-2021.07/bin/../lib/gcc/arm-none-eabi/10.3.1/../../../../arm-none-eabi/lib/thumb/v7e-m/nofp/libm.a(lib_a-k_rem_pio2.o)
 .text.__kernel_rem_pio2
                0x0000000000000000      0x850 /usr/gcc-arm-none-eabi-10.3-2021.07/bin/../lib/gcc/arm-none-eabi/10.3.1/../../../../arm-none-eabi/lib/thumb/v7e-m/nofp/libm.a(lib_a-k_rem_pio2.o)
 .rodata.PIo2   0x0000000000000000       0x40 /usr/gcc-arm-none-eabi-10.3-2021.07/bin/../lib/gcc/arm-none-eabi/10.3.1/../../../../arm-none-eabi/lib/thumb/v7e-m/nofp/libm.a(lib_a-k_rem_pio2.o)
 .rodata.init_jk
                0x0000000000000000       0x10 /usr/gcc-arm-none-eabi-10.3-2021.07/bin/../lib/gcc/arm-none-eabi/10.3.1/../../../../arm-none-eabi/lib/thumb/v7e-m/nofp/libm.a(lib_a-k_rem_pio2.o)
 .debug_frame   0x0000000000000000       0x58 /usr/gcc-arm-none-eabi-10.3-2021.07/bin/../lib/gcc/arm-none-eabi/10.3.1/../../../../arm-none-eabi/lib/thumb/v7e-m/nofp/libm.a(lib_a-k_rem_pio2.o)
 .ARM.attributes
                0x0000000000000000       0x2e /usr/gcc-arm-none-eabi-10.3-2021.07/bin/../lib/gcc/arm-none-eabi/10.3.1/../../../../arm-none-eabi/lib/thumb/v7e-m/nofp/libm.a(lib_a-k_rem_pio2.o)
 .text          0x0000000000000000        0x0 /usr/gcc-arm-none-eabi-10.3-2021.07/bin/../lib/gcc/arm-none-eabi/10.3.1/../../../../arm-none-eabi/lib/thumb/v7e-m/nofp/libm.a(lib_a-k_sin.o)
 .data          0x0000000000000000        0x0 /usr/gcc-arm-none-eabi-10.3-2021.07/bin/../lib/gcc/arm-none-eabi/10.3.1/../../../../arm-none-eabi/lib/thumb/v7e-m/nofp/libm.a(lib_a-k_sin.o)
 .bss           0x0000000000000000        0x0 /usr/gcc-arm-none-eabi-10.3-2021.07/bin/../lib/gcc/arm-none-eabi/10.3.1/../../../../arm-none-eabi/lib/thumb/v7e-m/nofp/libm.a(lib_a-k_sin.o)
 .text.__kernel_sin
                0x0000000000000000      0x184 /usr/gcc-arm-none-eabi-10.3-2021.07/bin/../lib/gcc/arm-none-eabi/10.3.1/../../../../arm-none-eabi/lib/thumb/v7e-m/nofp/libm.a(lib_a-k_sin.o)
 .debug_frame   0x0000000000000000       0x48 /usr/gcc-arm-none-eabi-10.3-2021.07/bin/../lib/gcc/arm-none-eabi/10.3.1/../../../../arm-none-eabi/lib/thumb/v7e-m/nofp/libm.a(lib_a-k_sin.o)
 .ARM.attributes
                0x0000000000000000       0x2e /usr/gcc-arm-none-eabi-10.3-2021.07/bin/../lib/gcc/arm-none-eabi/10.3.1/../../../../arm-none-eabi/lib/thumb/v7e-m/nofp/libm.a(lib_a-k_sin.o)
 .text          0x0000000000000000        0x0 /usr/gcc-arm-none-eabi-10.3-2021.07/bin/../lib/gcc/arm-none-eabi/10.3.1/../../../../arm-none-eabi/lib/thumb/v7e-m/nofp/libm.a(lib_a-s_atan.o)
 .data          0x0000000000000000        0x0 /usr/gcc-arm-none-eabi-10.3-2021.07/bin/../lib/gcc/arm-none-eabi/10.3.1/../../../../arm-none-eabi/lib/thumb/v7e-m/nofp/libm.a(lib_a-s_atan.o)
 .bss           0x0000000000000000        0x0 /usr/gcc-arm-none-eabi-10.3-2021.07/bin/../lib/gcc/arm-none-eabi/10.3.1/../../../../arm-none-eabi/lib/thumb/v7e-m/nofp/libm.a(lib_a-s_atan.o)
 .text.atan     0x0000000000000000      0x32c /usr/gcc-arm-none-eabi-10.3-2021.07/bin/../lib/gcc/arm-none-eabi/10.3.1/../../../../arm-none-eabi/lib/thumb/v7e-m/nofp/libm.a(lib_a-s_atan.o)
 .rodata.atanhi
                0x0000000000000000       0x20 /usr/gcc-arm-none-eabi-10.3-2021.07/bin/../lib/gcc/arm-none-eabi/10.3.1/../../../../arm-none-eabi/lib/thumb/v7e-m/nofp/libm.a(lib_a-s_atan.o)
 .rodata.atanlo
                0x0000000000000000       0x20 /usr/gcc-arm-none-eabi-10.3-2021.07/bin/../lib/gcc/arm-none-eabi/10.3.1/../../../../arm-none-eabi/lib/thumb/v7e-m/nofp/libm.a(lib_a-s_atan.o)
 .debug_frame   0x0000000000000000       0x38 /usr/gcc-arm-none-eabi-10.3-2021.07/bin/../lib/gcc/arm-none-eabi/10.3.1/../../../../arm-none-eabi/lib/thumb/v7e-m/nofp/libm.a(lib_a-s_atan.o)
 .ARM.attributes
                0x0000000000000000       0x2e /usr/gcc-arm-none-eabi-10.3-2021.07/bin/../lib/gcc/arm-none-eabi/10.3.1/../../../../arm-none-eabi/lib/thumb/v7e-m/nofp/libm.a(lib_a-s_atan.o)
 .text          0x0000000000000000        0x0 /usr/gcc-arm-none-eabi-10.3-2021.07/bin/../lib/gcc/arm-none-eabi/10.3.1/../../../../arm-none-eabi/lib/thumb/v7e-m/nofp/libm.a(lib_a-s_fabs.o)
 .data          0x0000000000000000        0x0 /usr/gcc-arm-none-eabi-10.3-2021.07/bin/../lib/gcc/arm-none-eabi/10.3.1/../../../../arm-none-eabi/lib/thumb/v7e-m/nofp/libm.a(lib_a-s_fabs.o)
 .bss           0x0000000000000000        0x0 /usr/gcc-arm-none-eabi-10.3-2021.07/bin/../lib/gcc/arm-none-eabi/10.3.1/../../../../arm-none-eabi/lib/thumb/v7e-m/nofp/libm.a(lib_a-s_fabs.o)
 .text.fabs     0x0000000000000000        0x8 /usr/gcc-arm-none-eabi-10.3-2021.07/bin/../lib/gcc/arm-none-eabi/10.3.1/../../../../arm-none-eabi/lib/thumb/v7e-m/nofp/libm.a(lib_a-s_fabs.o)
 .debug_frame   0x0000000000000000       0x20 /usr/gcc-arm-none-eabi-10.3-2021.07/bin/../lib/gcc/arm-none-eabi/10.3.1/../../../../arm-none-eabi/lib/thumb/v7e-m/nofp/libm.a(lib_a-s_fabs.o)
 .ARM.attributes
                0x0000000000000000       0x2e /usr/gcc-arm-none-eabi-10.3-2021.07/bin/../lib/gcc/arm-none-eabi/10.3.1/../../../../arm-none-eabi/lib/thumb/v7e-m/nofp/libm.a(lib_a-s_fabs.o)
 .text          0x0000000000000000        0x0 /usr/gcc-arm-none-eabi-10.3-2021.07/bin/../lib/gcc/arm-none-eabi/10.3.1/../../../../arm-none-eabi/lib/thumb/v7e-m/nofp/libm.a(lib_a-s_scalbn.o)
 .data          0x0000000000000000        0x0 /usr/gcc-arm-none-eabi-10.3-2021.07/bin/../lib/gcc/arm-none-eabi/10.3.1/../../../../arm-none-eabi/lib/thumb/v7e-m/nofp/libm.a(lib_a-s_scalbn.o)
 .bss           0x0000000000000000        0x0 /usr/gcc-arm-none-eabi-10.3-2021.07/bin/../lib/gcc/arm-none-eabi/10.3.1/../../../../arm-none-eabi/lib/thumb/v7e-m/nofp/libm.a(lib_a-s_scalbn.o)
 .text.scalbn   0x0000000000000000       0xf4 /usr/gcc-arm-none-eabi-10.3-2021.07/bin/../lib/gcc/arm-none-eabi/10.3.1/../../../../arm-none-eabi/lib/thumb/v7e-m/nofp/libm.a(lib_a-s_scalbn.o)
 .debug_frame   0x0000000000000000       0x2c /usr/gcc-arm-none-eabi-10.3-2021.07/bin/../lib/gcc/arm-none-eabi/10.3.1/../../../../arm-none-eabi/lib/thumb/v7e-m/nofp/libm.a(lib_a-s_scalbn.o)
 .ARM.attributes
                0x0000000000000000       0x2e /usr/gcc-arm-none-eabi-10.3-2021.07/bin/../lib/gcc/arm-none-eabi/10.3.1/../../../../arm-none-eabi/lib/thumb/v7e-m/nofp/libm.a(lib_a-s_scalbn.o)

Memory Configuration

Name             Origin             Length             Attributes
RAM              0x0000000020000000 0x0000000000010000 xrw
RAM2             0x0000000010000000 0x0000000000008000 xrw
FLASH            0x0000000008008000 0x0000000000036000 xr
*default*        0x0000000000000000 0xffffffffffffffff

Linker script and memory map

LOAD /usr/gcc-arm-none-eabi-10.3-2021.07/bin/../lib/gcc/arm-none-eabi/10.3.1/thumb/v7e-m/nofp/crti.o
LOAD /usr/gcc-arm-none-eabi-10.3-2021.07/bin/../lib/gcc/arm-none-eabi/10.3.1/thumb/v7e-m/nofp/crtbegin.o
LOAD /usr/gcc-arm-none-eabi-10.3-2021.07/bin/../lib/gcc/arm-none-eabi/10.3.1/../../../../arm-none-eabi/lib/thumb/v7e-m/nofp/crt0.o
LOAD /usr/gcc-arm-none-eabi-10.3-2021.07/bin/../lib/gcc/arm-none-eabi/10.3.1/../../../../arm-none-eabi/lib/thumb/v7e-m/nofp/libm.a
LOAD CMakeFiles/loko_app.dir/Core/Src/lorawan_app/lora_app.c.obj
LOAD /tmp/loko_app.yhd4Rs.ltrans0.ltrans.o
LOAD /tmp/loko_app.yhd4Rs.ltrans1.ltrans.o
LOAD /tmp/loko_app.yhd4Rs.ltrans2.ltrans.o
LOAD /tmp/ccb1mE2G.debug.temp.o
LOAD /tmp/ccvtyvG1.debug.temp.o
LOAD /tmp/ccf4nu6k.debug.temp.o
LOAD /tmp/ccnVlKlu.debug.temp.o
LOAD /tmp/ccv9rn0j.debug.temp.o
LOAD /tmp/cceua3JK.debug.temp.o
LOAD /tmp/cc8Bwa48.debug.temp.o
LOAD /tmp/ccGbhCYF.debug.temp.o
LOAD /tmp/ccw5WUJ6.debug.temp.o
LOAD /tmp/ccKx6cKM.debug.temp.o
LOAD /tmp/cc9VkKNH.debug.temp.o
LOAD /tmp/ccqcO2kI.debug.temp.o
LOAD /tmp/ccnpwgnj.debug.temp.o
LOAD /tmp/cc9Mtpmj.debug.temp.o
LOAD /tmp/cc7IqFkN.debug.temp.o
LOAD /tmp/cc2bwXrf.debug.temp.o
LOAD /tmp/ccS0FgKV.debug.temp.o
LOAD /tmp/ccW0RuGS.debug.temp.o
LOAD /tmp/ccYRGota.debug.temp.o
LOAD /tmp/cchfKlvi.debug.temp.o
LOAD /tmp/ccwatcr1.debug.temp.o
LOAD /tmp/cc8WDkSq.debug.temp.o
LOAD /tmp/ccwfa9rK.debug.temp.o
LOAD /tmp/ccOP75ae.debug.temp.o
LOAD /tmp/ccGL35ux.debug.temp.o
LOAD /tmp/ccYatsSs.debug.temp.o
LOAD /tmp/ccycYC5i.debug.temp.o
LOAD /tmp/ccsTJXcn.debug.temp.o
LOAD /tmp/ccASDsCr.debug.temp.o
LOAD /tmp/cc0QnPAE.debug.temp.o
LOAD /tmp/ccqWapzz.debug.temp.o
LOAD /tmp/ccIPOR02.debug.temp.o
LOAD /tmp/ccuKgu3r.debug.temp.o
LOAD /tmp/ccS4GNtn.debug.temp.o
LOAD /tmp/ccL8cbEX.debug.temp.o
LOAD /tmp/ccjEhC0X.debug.temp.o
LOAD /tmp/ccSWKV5l.debug.temp.o
LOAD /tmp/ccBbGa7S.debug.temp.o
LOAD /tmp/cc0o2vl9.debug.temp.o
LOAD /tmp/ccI6Ji0y.debug.temp.o
LOAD /tmp/ccWgRVfz.debug.temp.o
LOAD /tmp/ccZmoG4K.debug.temp.o
LOAD /tmp/cc9GxKl9.debug.temp.o
LOAD /tmp/ccGkZ2CD.debug.temp.o
LOAD /tmp/ccZJSQoQ.debug.temp.o
LOAD /tmp/ccXaRzWs.debug.temp.o
LOAD /tmp/ccDWjkjd.debug.temp.o
LOAD /tmp/ccQ0LfzP.debug.temp.o
LOAD /tmp/cchl7RkN.debug.temp.o
LOAD /tmp/cc6Y0I9l.debug.temp.o
LOAD /tmp/ccQYZVmC.debug.temp.o
LOAD /tmp/ccEsXZVT.debug.temp.o
LOAD /tmp/cc5W3YOV.debug.temp.o
LOAD /tmp/ccxQGTac.debug.temp.o
LOAD /tmp/ccX9xCKb.debug.temp.o
LOAD /tmp/ccmk0lFw.debug.temp.o
LOAD /tmp/ccIySCdd.debug.temp.o
LOAD /tmp/ccpSuKeh.debug.temp.o
LOAD /tmp/ccHphSDI.debug.temp.o
LOAD /tmp/ccitYPK1.debug.temp.o
LOAD /tmp/cccPgEab.debug.temp.o
LOAD /tmp/ccP34yzr.debug.temp.o
LOAD /tmp/cc9MAM8O.debug.temp.o
LOAD /tmp/cc0EHvkk.debug.temp.o
LOAD /tmp/ccSDVopy.debug.temp.o
LOAD /tmp/cc49PgLx.debug.temp.o
LOAD /tmp/ccVIWmL4.debug.temp.o
LOAD /tmp/ccaxJaIv.debug.temp.o
LOAD /tmp/cc2OSRjd.debug.temp.o
LOAD /tmp/cclhSWJ0.debug.temp.o
LOAD /tmp/cciHJXIo.debug.temp.o
LOAD /tmp/ccvEw285.debug.temp.o
LOAD /tmp/cc4LIk0Y.debug.temp.o
LOAD /tmp/ccykgIKk.debug.temp.o
LOAD /tmp/ccMcs8w0.debug.temp.o
LOAD /tmp/ccEuRAJG.debug.temp.o
LOAD /tmp/ccDl5sW9.debug.temp.o
LOAD /tmp/cc9ZO3pm.debug.temp.o
LOAD /tmp/ccEEVYed.debug.temp.o
LOAD /tmp/ccco4HDN.debug.temp.o
LOAD /tmp/ccTn9IA9.debug.temp.o
LOAD /tmp/ccsoTJvH.debug.temp.o
LOAD /tmp/ccXBoalU.debug.temp.o
LOAD /tmp/ccUegmPF.debug.temp.o
LOAD /tmp/cc1f2pbn.debug.temp.o
LOAD CMakeFiles/loko_app.dir/Core/Src/lorawan_app/lora_info.c.obj
LOAD CMakeFiles/loko_app.dir/Core/Src/lorawan_app/stm32_systime.c.obj
LOAD CMakeFiles/loko_app.dir/Core/Src/lorawan_app/stm32_timer.c.obj
LOAD CMakeFiles/loko_app.dir/Core/Src/lorawan_app/timer_if.c.obj
LOAD CMakeFiles/loko_app.dir/Core/Src/application.c.obj
LOAD CMakeFiles/loko_app.dir/Core/Src/subghz_phy_app.c.obj
LOAD CMakeFiles/loko_app.dir/Core/Src/sysmem.c.obj
LOAD CMakeFiles/loko_app.dir/Core/Src/version.c.obj
LOAD CMakeFiles/loko_app.dir/Middlewares/Third_Party/cayenne_lpp_c/cayenne_lpp_c.c.obj
LOAD CMakeFiles/loko_app.dir/Core/cmd_line/cmd_line.c.obj
LOAD CMakeFiles/loko_app.dir/Core/encrypt_p2p_payload/encrypt_p2p_payload.c.obj
LOAD CMakeFiles/loko_app.dir/Core/gnss_trace/gnss_trace.c.obj
LOAD CMakeFiles/loko_app.dir/Core/log_/log_.c.obj
LOAD CMakeFiles/loko_app.dir/Middlewares/Third_Party/LoRaWAN/Crypto/cmac.c.obj
LOAD CMakeFiles/loko_app.dir/Middlewares/Third_Party/LoRaWAN/Crypto/lorawan_aes.c.obj
LOAD CMakeFiles/loko_app.dir/Middlewares/Third_Party/LoRaWAN/Crypto/soft-se.c.obj
LOAD CMakeFiles/loko_app.dir/Middlewares/Third_Party/LoRaWAN/LmHandler/LmHandler.c.obj
LOAD CMakeFiles/loko_app.dir/Middlewares/Third_Party/LoRaWAN/LmHandler/NvmDataMgmt.c.obj
LOAD CMakeFiles/loko_app.dir/Middlewares/Third_Party/LoRaWAN/LmHandler/Packages/LmhpCompliance.c.obj
LOAD CMakeFiles/loko_app.dir/Middlewares/Third_Party/LoRaWAN/Mac/LoRaMac.c.obj
LOAD CMakeFiles/loko_app.dir/Middlewares/Third_Party/LoRaWAN/Mac/LoRaMacAdr.c.obj
LOAD CMakeFiles/loko_app.dir/Middlewares/Third_Party/LoRaWAN/Mac/LoRaMacClassB.c.obj
LOAD CMakeFiles/loko_app.dir/Middlewares/Third_Party/LoRaWAN/Mac/LoRaMacCommands.c.obj
LOAD CMakeFiles/loko_app.dir/Middlewares/Third_Party/LoRaWAN/Mac/LoRaMacConfirmQueue.c.obj
LOAD CMakeFiles/loko_app.dir/Middlewares/Third_Party/LoRaWAN/Mac/LoRaMacCrypto.c.obj
LOAD CMakeFiles/loko_app.dir/Middlewares/Third_Party/LoRaWAN/Mac/LoRaMacParser.c.obj
LOAD CMakeFiles/loko_app.dir/Middlewares/Third_Party/LoRaWAN/Mac/LoRaMacSerializer.c.obj
LOAD CMakeFiles/loko_app.dir/Middlewares/Third_Party/LoRaWAN/Mac/Region/Region.c.obj
LOAD CMakeFiles/loko_app.dir/Middlewares/Third_Party/LoRaWAN/Mac/Region/RegionAS923.c.obj
LOAD CMakeFiles/loko_app.dir/Middlewares/Third_Party/LoRaWAN/Mac/Region/RegionAU915.c.obj
LOAD CMakeFiles/loko_app.dir/Middlewares/Third_Party/LoRaWAN/Mac/Region/RegionBaseUS.c.obj
LOAD CMakeFiles/loko_app.dir/Middlewares/Third_Party/LoRaWAN/Mac/Region/RegionCN470.c.obj
LOAD CMakeFiles/loko_app.dir/Middlewares/Third_Party/LoRaWAN/Mac/Region/RegionCN470A20.c.obj
LOAD CMakeFiles/loko_app.dir/Middlewares/Third_Party/LoRaWAN/Mac/Region/RegionCN470A26.c.obj
LOAD CMakeFiles/loko_app.dir/Middlewares/Third_Party/LoRaWAN/Mac/Region/RegionCN470B20.c.obj
LOAD CMakeFiles/loko_app.dir/Middlewares/Third_Party/LoRaWAN/Mac/Region/RegionCN470B26.c.obj
LOAD CMakeFiles/loko_app.dir/Middlewares/Third_Party/LoRaWAN/Mac/Region/RegionCN779.c.obj
LOAD CMakeFiles/loko_app.dir/Middlewares/Third_Party/LoRaWAN/Mac/Region/RegionCommon.c.obj
LOAD CMakeFiles/loko_app.dir/Middlewares/Third_Party/LoRaWAN/Mac/Region/RegionEU433.c.obj
LOAD CMakeFiles/loko_app.dir/Middlewares/Third_Party/LoRaWAN/Mac/Region/RegionEU868.c.obj
LOAD CMakeFiles/loko_app.dir/Middlewares/Third_Party/LoRaWAN/Mac/Region/RegionIN865.c.obj
LOAD CMakeFiles/loko_app.dir/Middlewares/Third_Party/LoRaWAN/Mac/Region/RegionKR920.c.obj
LOAD CMakeFiles/loko_app.dir/Middlewares/Third_Party/LoRaWAN/Mac/Region/RegionRU864.c.obj
LOAD CMakeFiles/loko_app.dir/Middlewares/Third_Party/LoRaWAN/Mac/Region/RegionUS915.c.obj
LOAD CMakeFiles/loko_app.dir/Middlewares/Third_Party/LoRaWAN/Utilities/utilities.c.obj
LOAD CMakeFiles/loko_app.dir/Middlewares/Third_Party/lwgps/lwgps.c.obj
LOAD CMakeFiles/loko_app.dir/Core/queue/queue.c.obj
LOAD CMakeFiles/loko_app.dir/Core/settings/settings.c.obj
LOAD CMakeFiles/loko_app.dir/Middlewares/Third_Party/SubGHz_Phy/stm32_radio_driver/radio.c.obj
LOAD CMakeFiles/loko_app.dir/Middlewares/Third_Party/SubGHz_Phy/stm32_radio_driver/radio_driver.c.obj
LOAD CMakeFiles/loko_app.dir/Middlewares/Third_Party/SubGHz_Phy/stm32_radio_driver/radio_fw.c.obj
LOAD out/libbsp_loko_app.a
START GROUP
LOAD /usr/gcc-arm-none-eabi-10.3-2021.07/bin/../lib/gcc/arm-none-eabi/10.3.1/thumb/v7e-m/nofp/libgcc.a
LOAD /usr/gcc-arm-none-eabi-10.3-2021.07/bin/../lib/gcc/arm-none-eabi/10.3.1/../../../../arm-none-eabi/lib/thumb/v7e-m/nofp/libg_nano.a
LOAD /usr/gcc-arm-none-eabi-10.3-2021.07/bin/../lib/gcc/arm-none-eabi/10.3.1/../../../../arm-none-eabi/lib/thumb/v7e-m/nofp/libc_nano.a
END GROUP
START GROUP
LOAD /usr/gcc-arm-none-eabi-10.3-2021.07/bin/../lib/gcc/arm-none-eabi/10.3.1/thumb/v7e-m/nofp/libgcc.a
LOAD /usr/gcc-arm-none-eabi-10.3-2021.07/bin/../lib/gcc/arm-none-eabi/10.3.1/../../../../arm-none-eabi/lib/thumb/v7e-m/nofp/libc_nano.a
LOAD /usr/gcc-arm-none-eabi-10.3-2021.07/bin/../lib/gcc/arm-none-eabi/10.3.1/../../../../arm-none-eabi/lib/thumb/v7e-m/nofp/libnosys.a
END GROUP
START GROUP
LOAD /usr/gcc-arm-none-eabi-10.3-2021.07/bin/../lib/gcc/arm-none-eabi/10.3.1/thumb/v7e-m/nofp/libgcc.a
LOAD /usr/gcc-arm-none-eabi-10.3-2021.07/bin/../lib/gcc/arm-none-eabi/10.3.1/../../../../arm-none-eabi/lib/thumb/v7e-m/nofp/libc_nano.a
LOAD /usr/gcc-arm-none-eabi-10.3-2021.07/bin/../lib/gcc/arm-none-eabi/10.3.1/../../../../arm-none-eabi/lib/thumb/v7e-m/nofp/libnosys.a
END GROUP
LOAD /usr/gcc-arm-none-eabi-10.3-2021.07/bin/../lib/gcc/arm-none-eabi/10.3.1/thumb/v7e-m/nofp/crtend.o
LOAD /usr/gcc-arm-none-eabi-10.3-2021.07/bin/../lib/gcc/arm-none-eabi/10.3.1/thumb/v7e-m/nofp/crtn.o
                0x0000000020010000                _estack = (ORIGIN (RAM) + LENGTH (RAM))
                0x0000000000000200                _Min_Heap_Size = 0x200
                0x0000000000000400                _Min_Stack_Size = 0x400

.isr_vector     0x0000000008008000      0x138
                0x0000000008008000                . = ALIGN (0x4)
 *(.isr_vector)
 .isr_vector    0x0000000008008000      0x138 out/libbsp_loko_app.a(startup_stm32wle5jcix.s.obj)
                0x0000000008008000                g_pfnVectors
                0x0000000008008138                . = ALIGN (0x4)

.version        0x0000000008008200       0x10
                0x0000000008008200                . = ALIGN (0x4)
 *(.version)
 .version       0x0000000008008200       0x10 /tmp/loko_app.yhd4Rs.ltrans2.ltrans.o
                0x0000000008008210                . = ALIGN (0x4)

.text           0x0000000008008210    0x16dbc
                0x0000000008008210                . = ALIGN (0x4)
 *(.text)
 .text          0x0000000008008210       0x40 /usr/gcc-arm-none-eabi-10.3-2021.07/bin/../lib/gcc/arm-none-eabi/10.3.1/thumb/v7e-m/nofp/crtbegin.o
 .text          0x0000000008008250       0x10 /usr/gcc-arm-none-eabi-10.3-2021.07/bin/../lib/gcc/arm-none-eabi/10.3.1/../../../../arm-none-eabi/lib/thumb/v7e-m/nofp/libg_nano.a(lib_a-strlen.o)
                0x0000000008008250                strlen
 .text          0x0000000008008260       0xa0 /usr/gcc-arm-none-eabi-10.3-2021.07/bin/../lib/gcc/arm-none-eabi/10.3.1/../../../../arm-none-eabi/lib/thumb/v7e-m/nofp/libg_nano.a(lib_a-memchr.o)
                0x0000000008008260                memchr
 .text          0x0000000008008300      0x378 /usr/gcc-arm-none-eabi-10.3-2021.07/bin/../lib/gcc/arm-none-eabi/10.3.1/thumb/v7e-m/nofp/libgcc.a(_arm_addsubdf3.o)
                0x0000000008008300                __aeabi_drsub
                0x0000000008008308                __aeabi_dsub
                0x0000000008008308                __subdf3
                0x000000000800830c                __adddf3
                0x000000000800830c                __aeabi_dadd
                0x0000000008008584                __aeabi_ui2d
                0x0000000008008584                __floatunsidf
                0x00000000080085a4                __floatsidf
                0x00000000080085a4                __aeabi_i2d
                0x00000000080085c8                __extendsfdf2
                0x00000000080085c8                __aeabi_f2d
                0x000000000800860c                __aeabi_ul2d
                0x000000000800860c                __floatundidf
                0x000000000800861c                __floatdidf
                0x000000000800861c                __aeabi_l2d
 .text          0x0000000008008678      0x424 /usr/gcc-arm-none-eabi-10.3-2021.07/bin/../lib/gcc/arm-none-eabi/10.3.1/thumb/v7e-m/nofp/libgcc.a(_arm_muldivdf3.o)
                0x0000000008008678                __aeabi_dmul
                0x0000000008008678                __muldf3
                0x00000000080088cc                __aeabi_ddiv
                0x00000000080088cc                __divdf3
 .text          0x0000000008008a9c      0x110 /usr/gcc-arm-none-eabi-10.3-2021.07/bin/../lib/gcc/arm-none-eabi/10.3.1/thumb/v7e-m/nofp/libgcc.a(_arm_cmpdf2.o)
                0x0000000008008a9c                __gtdf2
                0x0000000008008a9c                __gedf2
                0x0000000008008aa4                __ltdf2
                0x0000000008008aa4                __ledf2
                0x0000000008008aac                __cmpdf2
                0x0000000008008aac                __eqdf2
                0x0000000008008aac                __nedf2
                0x0000000008008b28                __aeabi_cdrcmple
                0x0000000008008b38                __aeabi_cdcmple
                0x0000000008008b38                __aeabi_cdcmpeq
                0x0000000008008b48                __aeabi_dcmpeq
                0x0000000008008b5c                __aeabi_dcmplt
                0x0000000008008b70                __aeabi_dcmple
                0x0000000008008b84                __aeabi_dcmpge
                0x0000000008008b98                __aeabi_dcmpgt
 .text          0x0000000008008bac       0x2c /usr/gcc-arm-none-eabi-10.3-2021.07/bin/../lib/gcc/arm-none-eabi/10.3.1/thumb/v7e-m/nofp/libgcc.a(_arm_unorddf2.o)
                0x0000000008008bac                __aeabi_dcmpun
                0x0000000008008bac                __unorddf2
 .text          0x0000000008008bd8       0x50 /usr/gcc-arm-none-eabi-10.3-2021.07/bin/../lib/gcc/arm-none-eabi/10.3.1/thumb/v7e-m/nofp/libgcc.a(_arm_fixdfsi.o)
                0x0000000008008bd8                __fixdfsi
                0x0000000008008bd8                __aeabi_d2iz
 .text          0x0000000008008c28       0x40 /usr/gcc-arm-none-eabi-10.3-2021.07/bin/../lib/gcc/arm-none-eabi/10.3.1/thumb/v7e-m/nofp/libgcc.a(_arm_fixunsdfsi.o)
                0x0000000008008c28                __fixunsdfsi
                0x0000000008008c28                __aeabi_d2uiz
 .text          0x0000000008008c68       0xa0 /usr/gcc-arm-none-eabi-10.3-2021.07/bin/../lib/gcc/arm-none-eabi/10.3.1/thumb/v7e-m/nofp/libgcc.a(_arm_truncdfsf2.o)
                0x0000000008008c68                __aeabi_d2f
                0x0000000008008c68                __truncdfsf2
 .text          0x0000000008008d08       0xec /usr/gcc-arm-none-eabi-10.3-2021.07/bin/../lib/gcc/arm-none-eabi/10.3.1/thumb/v7e-m/nofp/libgcc.a(_arm_cmpsf2.o)
                0x0000000008008d08                __gtsf2
                0x0000000008008d08                __gesf2
                0x0000000008008d10                __lesf2
                0x0000000008008d10                __ltsf2
                0x0000000008008d18                __nesf2
                0x0000000008008d18                __eqsf2
                0x0000000008008d18                __cmpsf2
                0x0000000008008d78                __aeabi_cfrcmple
                0x0000000008008d80                __aeabi_cfcmple
                0x0000000008008d80                __aeabi_cfcmpeq
                0x0000000008008d90                __aeabi_fcmpeq
                0x0000000008008da4                __aeabi_fcmplt
                0x0000000008008db8                __aeabi_fcmple
                0x0000000008008dcc                __aeabi_fcmpge
                0x0000000008008de0                __aeabi_fcmpgt
 .text          0x0000000008008df4       0x30 /usr/gcc-arm-none-eabi-10.3-2021.07/bin/../lib/gcc/arm-none-eabi/10.3.1/thumb/v7e-m/nofp/libgcc.a(_aeabi_uldivmod.o)
                0x0000000008008df4                __aeabi_uldivmod
 .text          0x0000000008008e24       0x34 /usr/gcc-arm-none-eabi-10.3-2021.07/bin/../lib/gcc/arm-none-eabi/10.3.1/thumb/v7e-m/nofp/libgcc.a(_fixdfdi.o)
                0x0000000008008e24                __aeabi_d2lz
                0x0000000008008e24                __fixdfdi
 .text          0x0000000008008e58       0x3c /usr/gcc-arm-none-eabi-10.3-2021.07/bin/../lib/gcc/arm-none-eabi/10.3.1/thumb/v7e-m/nofp/libgcc.a(_fixunsdfdi.o)
                0x0000000008008e58                __aeabi_d2ulz
                0x0000000008008e58                __fixunsdfdi
 .text          0x0000000008008e94      0x2d0 /usr/gcc-arm-none-eabi-10.3-2021.07/bin/../lib/gcc/arm-none-eabi/10.3.1/thumb/v7e-m/nofp/libgcc.a(_udivmoddi4.o)
                0x0000000008008e94                __udivmoddi4
 .text          0x0000000008009164        0x4 /usr/gcc-arm-none-eabi-10.3-2021.07/bin/../lib/gcc/arm-none-eabi/10.3.1/thumb/v7e-m/nofp/libgcc.a(_dvmd_tls.o)
                0x0000000008009164                __aeabi_ldiv0
                0x0000000008009164                __aeabi_idiv0
 .text          0x0000000008009168      0x21c /usr/gcc-arm-none-eabi-10.3-2021.07/bin/../lib/gcc/arm-none-eabi/10.3.1/thumb/v7e-m/nofp/libgcc.a(_arm_addsubsf3.o)
                0x0000000008009168                __aeabi_frsub
                0x0000000008009170                __subsf3
                0x0000000008009170                __aeabi_fsub
                0x0000000008009174                __aeabi_fadd
                0x0000000008009174                __addsf3
                0x00000000080092d4                __aeabi_ui2f
                0x00000000080092d4                __floatunsisf
                0x00000000080092dc                __aeabi_i2f
                0x00000000080092dc                __floatsisf
                0x00000000080092f8                __floatundisf
                0x00000000080092f8                __aeabi_ul2f
                0x0000000008009308                __floatdisf
                0x0000000008009308                __aeabi_l2f
 .text          0x0000000008009384      0x2a0 /usr/gcc-arm-none-eabi-10.3-2021.07/bin/../lib/gcc/arm-none-eabi/10.3.1/thumb/v7e-m/nofp/libgcc.a(_arm_muldivsf3.o)
                0x0000000008009384                __mulsf3
                0x0000000008009384                __aeabi_fmul
                0x00000000080094ec                __divsf3
                0x00000000080094ec                __aeabi_fdiv
 .text          0x0000000008009624       0x4c /usr/gcc-arm-none-eabi-10.3-2021.07/bin/../lib/gcc/arm-none-eabi/10.3.1/thumb/v7e-m/nofp/libgcc.a(_arm_fixsfsi.o)
                0x0000000008009624                __fixsfsi
                0x0000000008009624                __aeabi_f2iz
 .text          0x0000000008009670       0x40 /usr/gcc-arm-none-eabi-10.3-2021.07/bin/../lib/gcc/arm-none-eabi/10.3.1/thumb/v7e-m/nofp/libgcc.a(_arm_fixunssfsi.o)
                0x0000000008009670                __aeabi_f2uiz
                0x0000000008009670                __fixunssfsi
 *(.text*)
 .text._get_dev_addr
                0x00000000080096b0        0xc /tmp/loko_app.yhd4Rs.ltrans0.ltrans.o
 .text.OnRadioRxError
                0x00000000080096bc       0x24 /tmp/loko_app.yhd4Rs.ltrans0.ltrans.o
 .text.NvmDataMgmtEvent
                0x00000000080096e0       0x10 /tmp/loko_app.yhd4Rs.ltrans0.ltrans.o
 .text.SysTimeGetMcuTime
                0x00000000080096f0       0x24 /tmp/loko_app.yhd4Rs.ltrans0.ltrans.o
 .text.TIMER_IF_SetTimerContext
                0x0000000008009714       0x14 /tmp/loko_app.yhd4Rs.ltrans0.ltrans.o
                0x0000000008009714                TIMER_IF_SetTimerContext
 .text.TIMER_IF_GetTimerContext
                0x0000000008009728        0xc /tmp/loko_app.yhd4Rs.ltrans0.ltrans.o
                0x0000000008009728                TIMER_IF_GetTimerContext
 .text.TIMER_IF_GetTimerElapsedTime
                0x0000000008009734       0x18 /tmp/loko_app.yhd4Rs.ltrans0.ltrans.o
                0x0000000008009734                TIMER_IF_GetTimerElapsedTime
 .text.TIMER_IF_GetTimerValue
                0x000000000800974c       0x18 /tmp/loko_app.yhd4Rs.ltrans0.ltrans.o
                0x000000000800974c                TIMER_IF_GetTimerValue
 .text.TIMER_IF_GetMinimumTimeout
                0x0000000008009764        0x4 /tmp/loko_app.yhd4Rs.ltrans0.ltrans.o
                0x0000000008009764                TIMER_IF_GetMinimumTimeout
 .text.TIMER_IF_Convert_ms2Tick
                0x0000000008009768       0x14 /tmp/loko_app.yhd4Rs.ltrans0.ltrans.o
                0x0000000008009768                TIMER_IF_Convert_ms2Tick
 .text.TIMER_IF_Convert_Tick2ms
                0x000000000800977c       0x10 /tmp/loko_app.yhd4Rs.ltrans0.ltrans.o
                0x000000000800977c                TIMER_IF_Convert_Tick2ms
 .text.TIMER_IF_GetTime
                0x000000000800978c       0x30 /tmp/loko_app.yhd4Rs.ltrans0.ltrans.o
                0x000000000800978c                TIMER_IF_GetTime
 .text.TIMER_IF_BkUp_Write_Seconds
                0x00000000080097bc        0xc /tmp/loko_app.yhd4Rs.ltrans0.ltrans.o
                0x00000000080097bc                TIMER_IF_BkUp_Write_Seconds
 .text.TIMER_IF_BkUp_Write_SubSeconds
                0x00000000080097c8        0xc /tmp/loko_app.yhd4Rs.ltrans0.ltrans.o
                0x00000000080097c8                TIMER_IF_BkUp_Write_SubSeconds
 .text.TIMER_IF_BkUp_Read_Seconds
                0x00000000080097d4        0xc /tmp/loko_app.yhd4Rs.ltrans0.ltrans.o
                0x00000000080097d4                TIMER_IF_BkUp_Read_Seconds
 .text.TIMER_IF_BkUp_Read_SubSeconds
                0x00000000080097e0        0xc /tmp/loko_app.yhd4Rs.ltrans0.ltrans.o
                0x00000000080097e0                TIMER_IF_BkUp_Read_SubSeconds
 .text._get_ts  0x00000000080097ec        0xc /tmp/loko_app.yhd4Rs.ltrans0.ltrans.o
 .text.LmhpComplianceOnMlmeConfirm.lto_priv.0
                0x00000000080097f8        0x2 /tmp/loko_app.yhd4Rs.ltrans0.ltrans.o
                0x00000000080097f8                LmhpComplianceOnMlmeConfirm.lto_priv.0
 *fill*         0x00000000080097fa        0x2 
 .text._on_tx_done
                0x00000000080097fc        0xc /tmp/loko_app.yhd4Rs.ltrans0.ltrans.o
 .text._get_next_sub_num_str
                0x0000000008009808       0x38 /tmp/loko_app.yhd4Rs.ltrans0.ltrans.o
 .text._hex_to_dig
                0x0000000008009840       0x24 /tmp/loko_app.yhd4Rs.ltrans0.ltrans.o
 .text._hex_str_to_array
                0x0000000008009864       0x26 /tmp/loko_app.yhd4Rs.ltrans0.ltrans.o
 .text.copy_block
                0x000000000800988a       0x42 /tmp/loko_app.yhd4Rs.ltrans0.ltrans.o
 .text.update_encrypt_key_256
                0x00000000080098cc       0xc4 /tmp/loko_app.yhd4Rs.ltrans0.ltrans.o
 .text.GetKeyByID
                0x0000000008009990       0x30 /tmp/loko_app.yhd4Rs.ltrans0.ltrans.o
 .text.OnProcessTimer
                0x00000000080099c0       0x14 /tmp/loko_app.yhd4Rs.ltrans0.ltrans.o
 .text.LmhpComplianceIsInitialized
                0x00000000080099d4        0xc /tmp/loko_app.yhd4Rs.ltrans0.ltrans.o
 .text.LmhpComplianceIsTxPending
                0x00000000080099e0        0xc /tmp/loko_app.yhd4Rs.ltrans0.ltrans.o
 .text.LmhpComplianceOnMlmeIndication
                0x00000000080099ec        0x2 /tmp/loko_app.yhd4Rs.ltrans0.ltrans.o
 *fill*         0x00000000080099ee        0x2 
 .text.UpdateRxSlotIdleState
                0x00000000080099f0       0x1c /tmp/loko_app.yhd4Rs.ltrans0.ltrans.o
 .text._get_unique_id
                0x0000000008009a0c       0x20 /tmp/loko_app.yhd4Rs.ltrans0.ltrans.o
 .text.GetMaxAppPayloadWithoutFOptsLength
                0x0000000008009a2c       0x38 /tmp/loko_app.yhd4Rs.ltrans0.ltrans.o
 .text._settings_read
                0x0000000008009a64       0x10 /tmp/loko_app.yhd4Rs.ltrans0.ltrans.o
 .text._settings_default_init_cb
                0x0000000008009a74       0x40 /tmp/loko_app.yhd4Rs.ltrans0.ltrans.o
 .text.LmhpComplianceInit
                0x0000000008009ab4       0x50 /tmp/loko_app.yhd4Rs.ltrans0.ltrans.o
 .text.OnRetransmitTimeoutTimerEvent
                0x0000000008009b04       0x30 /tmp/loko_app.yhd4Rs.ltrans0.ltrans.o
 .text.PrepareRxDoneAbort
                0x0000000008009b34       0x38 /tmp/loko_app.yhd4Rs.ltrans0.ltrans.o
 .text.OnRxWindow1TimerEvent
                0x0000000008009b6c       0x48 /tmp/loko_app.yhd4Rs.ltrans0.ltrans.o
 .text.OnRxWindow2TimerEvent
                0x0000000008009bb4       0x50 /tmp/loko_app.yhd4Rs.ltrans0.ltrans.o
 .text.LmHandlerDeviceTimeReq
                0x0000000008009c04       0x28 /tmp/loko_app.yhd4Rs.ltrans0.ltrans.o
 .text._settings_write
                0x0000000008009c2c        0xc /tmp/loko_app.yhd4Rs.ltrans0.ltrans.o
 .text.TIMER_IF_StopTimer
                0x0000000008009c38       0x20 /tmp/loko_app.yhd4Rs.ltrans0.ltrans.o
                0x0000000008009c38                TIMER_IF_StopTimer
 .text.TIMER_IF_Init
                0x0000000008009c58       0x6c /tmp/loko_app.yhd4Rs.ltrans0.ltrans.o
                0x0000000008009c58                TIMER_IF_Init
 .text.MlmeIndication
                0x0000000008009cc4       0x70 /tmp/loko_app.yhd4Rs.ltrans0.ltrans.o
 .text.McpsConfirm
                0x0000000008009d34       0x54 /tmp/loko_app.yhd4Rs.ltrans0.ltrans.o
 .text._log_write
                0x0000000008009d88        0x4 /tmp/loko_app.yhd4Rs.ltrans0.ltrans.o
 .text._settings_erase
                0x0000000008009d8c        0x6 /tmp/loko_app.yhd4Rs.ltrans0.ltrans.o
 .text._settings_save_request_cb
                0x0000000008009d92        0x4 /tmp/loko_app.yhd4Rs.ltrans0.ltrans.o
 *fill*         0x0000000008009d96        0x2 
 .text._power_on_button_holding_indication
                0x0000000008009d98       0x40 /tmp/loko_app.yhd4Rs.ltrans0.ltrans.o
 .text._prepare_to_sleep
                0x0000000008009dd8       0xe0 /tmp/loko_app.yhd4Rs.ltrans0.ltrans.o
 .text._pack_lat_lon_32
                0x0000000008009eb8       0x30 /tmp/loko_app.yhd4Rs.ltrans0.ltrans.o
 .text._cmd_gtrace_erase
                0x0000000008009ee8       0x20 /tmp/loko_app.yhd4Rs.ltrans0.ltrans.o
 .text._print   0x0000000008009f08       0x2a /tmp/loko_app.yhd4Rs.ltrans0.ltrans.o
 *fill*         0x0000000008009f32        0x2 
 .text._cmd_print
                0x0000000008009f34       0xe0 /tmp/loko_app.yhd4Rs.ltrans0.ltrans.o
 .text._cmd_gtrace_print
                0x000000000800a014       0x9c /tmp/loko_app.yhd4Rs.ltrans0.ltrans.o
 .text._cmd_help
                0x000000000800a0b0       0x5c /tmp/loko_app.yhd4Rs.ltrans0.ltrans.o
 .text._cmd_reset
                0x000000000800a10c       0x20 /tmp/loko_app.yhd4Rs.ltrans0.ltrans.o
 .text._uart_data_proccess
                0x000000000800a12c      0x150 /tmp/loko_app.yhd4Rs.ltrans0.ltrans.o
 .text._shutdown_button_holding_indication
                0x000000000800a27c       0x50 /tmp/loko_app.yhd4Rs.ltrans0.ltrans.o
 .text._cmd_set_dev_eui
                0x000000000800a2cc       0x7c /tmp/loko_app.yhd4Rs.ltrans0.ltrans.o
 .text._cmd_set_app_eui
                0x000000000800a348       0x7c /tmp/loko_app.yhd4Rs.ltrans0.ltrans.o
 .text._cmd_set_app_key
                0x000000000800a3c4       0x8c /tmp/loko_app.yhd4Rs.ltrans0.ltrans.o
 .text._cmd_set_p2p_key
                0x000000000800a450       0x78 /tmp/loko_app.yhd4Rs.ltrans0.ltrans.o
 .text.AES_CMAC_Update
                0x000000000800a4c8       0xce /tmp/loko_app.yhd4Rs.ltrans0.ltrans.o
 *fill*         0x000000000800a596        0x2 
 .text.OpenContinuousRxCWindow
                0x000000000800a598       0x5c /tmp/loko_app.yhd4Rs.ltrans0.ltrans.o
 .text.SysTimeGet
                0x000000000800a5f4       0x44 /tmp/loko_app.yhd4Rs.ltrans0.ltrans.o
                0x000000000800a5f4                SysTimeGet
 .text.UTIL_TIMER_GetCurrentTime
                0x000000000800a638        0xe /tmp/loko_app.yhd4Rs.ltrans0.ltrans.o
                0x000000000800a638                UTIL_TIMER_GetCurrentTime
 .text.UTIL_TIMER_GetElapsedTime
                0x000000000800a646       0x1a /tmp/loko_app.yhd4Rs.ltrans0.ltrans.o
                0x000000000800a646                UTIL_TIMER_GetElapsedTime
 .text.HandleRadioRxErrorTimeout
                0x000000000800a660       0x70 /tmp/loko_app.yhd4Rs.ltrans0.ltrans.o
 .text.TimerSetTimeout
                0x000000000800a6d0       0x2c /tmp/loko_app.yhd4Rs.ltrans0.ltrans.o
                0x000000000800a6d0                TimerSetTimeout
 .text.TimerInsertNewHeadTimer
                0x000000000800a6fc       0x18 /tmp/loko_app.yhd4Rs.ltrans0.ltrans.o
                0x000000000800a6fc                TimerInsertNewHeadTimer
 .text._sbrk    0x000000000800a714       0x40 /tmp/loko_app.yhd4Rs.ltrans0.ltrans.o
                0x000000000800a714                _sbrk
 .text._log_to.lto_priv.0
                0x000000000800a754       0x10 /tmp/loko_app.yhd4Rs.ltrans0.ltrans.o
                0x000000000800a754                _log_to.lto_priv.0
 .text._print_ts.lto_priv.0
                0x000000000800a764       0x3c /tmp/loko_app.yhd4Rs.ltrans0.ltrans.o
                0x000000000800a764                _print_ts.lto_priv.0
 .text.log_it   0x000000000800a7a0       0x8c /tmp/loko_app.yhd4Rs.ltrans0.ltrans.o
                0x000000000800a7a0                log_it
 .text._get_battery_level
                0x000000000800a82c       0x58 /tmp/loko_app.yhd4Rs.ltrans0.ltrans.o
 .text.OnRadioTxDone
                0x000000000800a884       0x54 /tmp/loko_app.yhd4Rs.ltrans0.ltrans.o
 .text.OnRadioRxDone
                0x000000000800a8d8       0x50 /tmp/loko_app.yhd4Rs.ltrans0.ltrans.o
 .text.OnRadioTxTimeout
                0x000000000800a928       0x34 /tmp/loko_app.yhd4Rs.ltrans0.ltrans.o
 .text.OnRadioRxTimeout
                0x000000000800a95c       0x34 /tmp/loko_app.yhd4Rs.ltrans0.ltrans.o
 .text._on_rx_data
                0x000000000800a990       0x84 /tmp/loko_app.yhd4Rs.ltrans0.ltrans.o
 .text._on_tx_data
                0x000000000800aa14       0x90 /tmp/loko_app.yhd4Rs.ltrans0.ltrans.o
 .text._on_restore_context_request
                0x000000000800aaa4       0x28 /tmp/loko_app.yhd4Rs.ltrans0.ltrans.o
 .text._on_store_context_request
                0x000000000800aacc       0x44 /tmp/loko_app.yhd4Rs.ltrans0.ltrans.o
 .text._on_mac_process_notify
                0x000000000800ab10        0xc /tmp/loko_app.yhd4Rs.ltrans0.ltrans.o
 .text.TIMER_IF_StartTimer
                0x000000000800ab1c       0xb4 /tmp/loko_app.yhd4Rs.ltrans0.ltrans.o
                0x000000000800ab1c                TIMER_IF_StartTimer
 .text._switch_mode
                0x000000000800abd0       0x2c /tmp/loko_app.yhd4Rs.ltrans0.ltrans.o
 .text._shutdown
                0x000000000800abfc      0x290 /tmp/loko_app.yhd4Rs.ltrans0.ltrans.o
 .text._gtrace_load
                0x000000000800ae8c      0x158 /tmp/loko_app.yhd4Rs.ltrans0.ltrans.o
 .text._on_rx_done
                0x000000000800afe4       0x14 /tmp/loko_app.yhd4Rs.ltrans0.ltrans.o
 .text._on_tx_timeout
                0x000000000800aff8       0x20 /tmp/loko_app.yhd4Rs.ltrans0.ltrans.o
 .text._on_rx_timeout
                0x000000000800b018       0x14 /tmp/loko_app.yhd4Rs.ltrans0.ltrans.o
 .text._on_rx_error
                0x000000000800b02c       0x14 /tmp/loko_app.yhd4Rs.ltrans0.ltrans.o
 .text._cmd_set_id_1
                0x000000000800b040       0x4c /tmp/loko_app.yhd4Rs.ltrans0.ltrans.o
 .text._cmd_set_id_2
                0x000000000800b08c       0x4c /tmp/loko_app.yhd4Rs.ltrans0.ltrans.o
 .text._cmd_set_frequency
                0x000000000800b0d8       0x48 /tmp/loko_app.yhd4Rs.ltrans0.ltrans.o
 .text._cmd_set_auto_wakeup_interval
                0x000000000800b120       0x48 /tmp/loko_app.yhd4Rs.ltrans0.ltrans.o
 .text._cmd_erase
                0x000000000800b168       0x7c /tmp/loko_app.yhd4Rs.ltrans0.ltrans.o
 .text._cmd_gtrace_period
                0x000000000800b1e4       0x48 /tmp/loko_app.yhd4Rs.ltrans0.ltrans.o
 .text._cmd_enable_lorawan
                0x000000000800b22c       0x58 /tmp/loko_app.yhd4Rs.ltrans0.ltrans.o
 .text._cmd_enable_p2p_enc
                0x000000000800b284       0x54 /tmp/loko_app.yhd4Rs.ltrans0.ltrans.o
 .text._cmd_set_region
                0x000000000800b2d8       0x84 /tmp/loko_app.yhd4Rs.ltrans0.ltrans.o
 .text._cmd_set_debug_output
                0x000000000800b35c       0x4c /tmp/loko_app.yhd4Rs.ltrans0.ltrans.o
 .text._cmd_set_extended_packet
                0x000000000800b3a8       0x4c /tmp/loko_app.yhd4Rs.ltrans0.ltrans.o
 .text._cmd_set_gnss_mode
                0x000000000800b3f4       0x4c /tmp/loko_app.yhd4Rs.ltrans0.ltrans.o
 .text._cmd_set_tx_power
                0x000000000800b440       0x54 /tmp/loko_app.yhd4Rs.ltrans0.ltrans.o
 .text.PrintKey
                0x000000000800b494       0xac /tmp/loko_app.yhd4Rs.ltrans0.ltrans.o
 .text.xor_block.lto_priv.0
                0x000000000800b540       0x82 /tmp/loko_app.yhd4Rs.ltrans0.ltrans.o
                0x000000000800b540                xor_block.lto_priv.0
 .text.copy_and_key.lto_priv.0
                0x000000000800b5c2       0x84 /tmp/loko_app.yhd4Rs.ltrans0.ltrans.o
                0x000000000800b5c2                copy_and_key.lto_priv.0
 *fill*         0x000000000800b646        0x2 
 .text.shift_sub_rows.lto_priv.0
                0x000000000800b648       0x68 /tmp/loko_app.yhd4Rs.ltrans0.ltrans.o
                0x000000000800b648                shift_sub_rows.lto_priv.0
 .text.mix_sub_columns.lto_priv.0
                0x000000000800b6b0      0x1d4 /tmp/loko_app.yhd4Rs.ltrans0.ltrans.o
                0x000000000800b6b0                mix_sub_columns.lto_priv.0
 .text.ComputeCmac.lto_priv.0
                0x000000000800b884      0x1c0 /tmp/loko_app.yhd4Rs.ltrans0.ltrans.o
                0x000000000800b884                ComputeCmac.lto_priv.0
 .text.SecureElementAesEncrypt.part.0
                0x000000000800ba44       0x52 /tmp/loko_app.yhd4Rs.ltrans0.ltrans.o
                0x000000000800ba44                SecureElementAesEncrypt.part.0
 *fill*         0x000000000800ba96        0x2 
 .text.SecureElementSetKey.part.0
                0x000000000800ba98       0x70 /tmp/loko_app.yhd4Rs.ltrans0.ltrans.o
                0x000000000800ba98                SecureElementSetKey.part.0
 .text.SecureElementDeriveAndStoreKey
                0x000000000800bb08       0x32 /tmp/loko_app.yhd4Rs.ltrans0.ltrans.o
                0x000000000800bb08                SecureElementDeriveAndStoreKey
 *fill*         0x000000000800bb3a        0x2 
 .text.LoRaMacIsBusy
                0x000000000800bb3c       0x28 /tmp/loko_app.yhd4Rs.ltrans0.ltrans.o
                0x000000000800bb3c                LoRaMacIsBusy
 .text.SwitchClass.lto_priv.0
                0x000000000800bb64       0xb8 /tmp/loko_app.yhd4Rs.ltrans0.ltrans.o
                0x000000000800bb64                SwitchClass.lto_priv.0
 .text.ScheduleTx.lto_priv.0
                0x000000000800bc1c     0x14f4 /tmp/loko_app.yhd4Rs.ltrans0.ltrans.o
                0x000000000800bc1c                ScheduleTx.lto_priv.0
 .text.OnTxDelayedTimerEvent
                0x000000000800d110       0x70 /tmp/loko_app.yhd4Rs.ltrans0.ltrans.o
 .text.ResetMacParameters.lto_priv.0
                0x000000000800d180       0xe4 /tmp/loko_app.yhd4Rs.ltrans0.ltrans.o
                0x000000000800d180                ResetMacParameters.lto_priv.0
 .text.LoRaMacStop
                0x000000000800d264       0x24 /tmp/loko_app.yhd4Rs.ltrans0.ltrans.o
                0x000000000800d264                LoRaMacStop
 .text.LoRaMacMibGetRequestConfirm
                0x000000000800d288      0x1a4 /tmp/loko_app.yhd4Rs.ltrans0.ltrans.o
                0x000000000800d288                LoRaMacMibGetRequestConfirm
 .text.LmHandlerJoinStatus
                0x000000000800d42c       0x26 /tmp/loko_app.yhd4Rs.ltrans0.ltrans.o
                0x000000000800d42c                LmHandlerJoinStatus
 *fill*         0x000000000800d452        0x2 
 .text.McpsIndication
                0x000000000800d454       0x9c /tmp/loko_app.yhd4Rs.ltrans0.ltrans.o
 .text.MlmeConfirm
                0x000000000800d4f0       0xe4 /tmp/loko_app.yhd4Rs.ltrans0.ltrans.o
 .text.LoRaMacMibSetRequestConfirm
                0x000000000800d5d4      0x5e4 /tmp/loko_app.yhd4Rs.ltrans0.ltrans.o
                0x000000000800d5d4                LoRaMacMibSetRequestConfirm
 .text.LmHandlerJoin
                0x000000000800dbb8       0xbc /tmp/loko_app.yhd4Rs.ltrans0.ltrans.o
 .text.lorawan_init
                0x000000000800dc74      0x730 /tmp/loko_app.yhd4Rs.ltrans0.ltrans.o
 .text._on_join_request
                0x000000000800e3a4       0x5c /tmp/loko_app.yhd4Rs.ltrans0.ltrans.o
 .text.LmHandlerSend
                0x000000000800e400      0x4a4 /tmp/loko_app.yhd4Rs.ltrans0.ltrans.o
 *fill*         0x000000000800e8a4        0x4 
 .text._background_loop
                0x000000000800e8a8     0x13c4 /tmp/loko_app.yhd4Rs.ltrans0.ltrans.o
 *fill*         0x000000000800fc6c        0x4 
 .text.startup.main
                0x000000000800fc70     0x1458 /tmp/loko_app.yhd4Rs.ltrans0.ltrans.o
                0x000000000800fc70                main
 .text.LmhpComplianceProcess
                0x00000000080110c8       0xa0 /tmp/loko_app.yhd4Rs.ltrans0.ltrans.o
 .text.LmhpComplianceOnMcpsIndication
                0x0000000008011168      0x368 /tmp/loko_app.yhd4Rs.ltrans0.ltrans.o
 .text.RegionCN470A20GetBeaconChannelOffset
                0x00000000080114d0        0x8 /tmp/loko_app.yhd4Rs.ltrans1.ltrans.o
                0x00000000080114d0                RegionCN470A20GetBeaconChannelOffset
 .text.RegionCN470A20InitializeChannels
                0x00000000080114d8       0x58 /tmp/loko_app.yhd4Rs.ltrans1.ltrans.o
                0x00000000080114d8                RegionCN470A20InitializeChannels
 .text.RegionCN470A20InitializeChannelsMask
                0x0000000008011530       0x14 /tmp/loko_app.yhd4Rs.ltrans1.ltrans.o
                0x0000000008011530                RegionCN470A20InitializeChannelsMask
 .text.RegionCN470A20GetRx1Frequency
                0x0000000008011544       0x28 /tmp/loko_app.yhd4Rs.ltrans1.ltrans.o
                0x0000000008011544                RegionCN470A20GetRx1Frequency
 .text.RegionCN470A20GetDownlinkFrequency
                0x000000000801156c        0x4 /tmp/loko_app.yhd4Rs.ltrans1.ltrans.o
                0x000000000801156c                RegionCN470A20GetDownlinkFrequency
 .text.RegionCN470A20GetRx2Frequency
                0x0000000008011570       0x34 /tmp/loko_app.yhd4Rs.ltrans1.ltrans.o
                0x0000000008011570                RegionCN470A20GetRx2Frequency
 .text.RegionCN470B20GetBeaconChannelOffset
                0x00000000080115a4        0x8 /tmp/loko_app.yhd4Rs.ltrans1.ltrans.o
                0x00000000080115a4                RegionCN470B20GetBeaconChannelOffset
 .text.RegionCN470B20InitializeChannels
                0x00000000080115ac       0x58 /tmp/loko_app.yhd4Rs.ltrans1.ltrans.o
                0x00000000080115ac                RegionCN470B20InitializeChannels
 .text.RegionCN470B20InitializeChannelsMask
                0x0000000008011604        0x4 /tmp/loko_app.yhd4Rs.ltrans1.ltrans.o
                0x0000000008011604                RegionCN470B20InitializeChannelsMask
 .text.RegionCN470B20GetRx1Frequency
                0x0000000008011608       0x28 /tmp/loko_app.yhd4Rs.ltrans1.ltrans.o
                0x0000000008011608                RegionCN470B20GetRx1Frequency
 .text.RegionCN470B20GetDownlinkFrequency
                0x0000000008011630       0x1c /tmp/loko_app.yhd4Rs.ltrans1.ltrans.o
                0x0000000008011630                RegionCN470B20GetDownlinkFrequency
 .text.RegionCN470B20GetRx2Frequency
                0x000000000801164c       0x24 /tmp/loko_app.yhd4Rs.ltrans1.ltrans.o
                0x000000000801164c                RegionCN470B20GetRx2Frequency
 .text.RegionCN470A26GetDownlinkFrequency
                0x0000000008011670        0x8 /tmp/loko_app.yhd4Rs.ltrans1.ltrans.o
                0x0000000008011670                RegionCN470A26GetDownlinkFrequency
 .text.RegionCN470A26GetBeaconChannelOffset
                0x0000000008011678        0x4 /tmp/loko_app.yhd4Rs.ltrans1.ltrans.o
                0x0000000008011678                RegionCN470A26GetBeaconChannelOffset
 .text.RegionCN470A26InitializeChannels
                0x000000000801167c       0x2c /tmp/loko_app.yhd4Rs.ltrans1.ltrans.o
                0x000000000801167c                RegionCN470A26InitializeChannels
 .text.RegionCN470A26InitializeChannelsMask
                0x00000000080116a8       0x14 /tmp/loko_app.yhd4Rs.ltrans1.ltrans.o
                0x00000000080116a8                RegionCN470A26InitializeChannelsMask
 .text.RegionCN470A26GetRx1Frequency
                0x00000000080116bc       0x20 /tmp/loko_app.yhd4Rs.ltrans1.ltrans.o
                0x00000000080116bc                RegionCN470A26GetRx1Frequency
 .text.RegionCN470A26GetRx2Frequency
                0x00000000080116dc        0x8 /tmp/loko_app.yhd4Rs.ltrans1.ltrans.o
                0x00000000080116dc                RegionCN470A26GetRx2Frequency
 .text.RegionCN470B26GetDownlinkFrequency
                0x00000000080116e4        0x8 /tmp/loko_app.yhd4Rs.ltrans1.ltrans.o
                0x00000000080116e4                RegionCN470B26GetDownlinkFrequency
 .text.RegionCN470B26InitializeChannels
                0x00000000080116ec       0x2c /tmp/loko_app.yhd4Rs.ltrans1.ltrans.o
                0x00000000080116ec                RegionCN470B26InitializeChannels
 .text.RegionCN470B26InitializeChannelsMask
                0x0000000008011718        0x4 /tmp/loko_app.yhd4Rs.ltrans1.ltrans.o
                0x0000000008011718                RegionCN470B26InitializeChannelsMask
 .text.RegionCN470B26GetRx1Frequency
                0x000000000801171c       0x20 /tmp/loko_app.yhd4Rs.ltrans1.ltrans.o
                0x000000000801171c                RegionCN470B26GetRx1Frequency
 .text.RegionCN470B26GetRx2Frequency
                0x000000000801173c        0x8 /tmp/loko_app.yhd4Rs.ltrans1.ltrans.o
                0x000000000801173c                RegionCN470B26GetRx2Frequency
 .text.RegionAlternateDr
                0x0000000008011744       0x78 /tmp/loko_app.yhd4Rs.ltrans1.ltrans.o
 .text.RegionCN470A20LinkAdrChMaskUpdate
                0x00000000080117bc       0x68 /tmp/loko_app.yhd4Rs.ltrans1.ltrans.o
                0x00000000080117bc                RegionCN470A20LinkAdrChMaskUpdate
 .text.RegionCN470B20LinkAdrChMaskUpdate
                0x0000000008011824        0x4 /tmp/loko_app.yhd4Rs.ltrans1.ltrans.o
                0x0000000008011824                RegionCN470B20LinkAdrChMaskUpdate
 .text.RegionCN470B26VerifyRfFreq
                0x0000000008011828       0x30 /tmp/loko_app.yhd4Rs.ltrans1.ltrans.o
                0x0000000008011828                RegionCN470B26VerifyRfFreq
 .text.RegionCN470A20VerifyRfFreq
                0x0000000008011858       0x30 /tmp/loko_app.yhd4Rs.ltrans1.ltrans.o
                0x0000000008011858                RegionCN470A20VerifyRfFreq
 .text.RegionCN470A26LinkAdrChMaskUpdate
                0x0000000008011888       0x68 /tmp/loko_app.yhd4Rs.ltrans1.ltrans.o
                0x0000000008011888                RegionCN470A26LinkAdrChMaskUpdate
 .text.RegionCN470B26LinkAdrChMaskUpdate
                0x00000000080118f0        0x4 /tmp/loko_app.yhd4Rs.ltrans1.ltrans.o
                0x00000000080118f0                RegionCN470B26LinkAdrChMaskUpdate
 .text.RegionCN470A26VerifyRfFreq
                0x00000000080118f4       0x30 /tmp/loko_app.yhd4Rs.ltrans1.ltrans.o
                0x00000000080118f4                RegionCN470A26VerifyRfFreq
 .text.RegionCN470B20VerifyRfFreq
                0x0000000008011924       0x50 /tmp/loko_app.yhd4Rs.ltrans1.ltrans.o
                0x0000000008011924                RegionCN470B20VerifyRfFreq
 .text.RegionCN470B26GetBeaconChannelOffset
                0x0000000008011974        0x4 /tmp/loko_app.yhd4Rs.ltrans1.ltrans.o
                0x0000000008011974                RegionCN470B26GetBeaconChannelOffset
 .text.RegionCommonComputeRxWindowParameters
                0x0000000008011978       0x52 /tmp/loko_app.yhd4Rs.ltrans1.ltrans.o
 *fill*         0x00000000080119ca        0x2 
 .text.rand1    0x00000000080119cc       0x28 /tmp/loko_app.yhd4Rs.ltrans1.ltrans.o
 .text.RadioGetStatus.lto_priv.0
                0x00000000080119f4       0x1c /tmp/loko_app.yhd4Rs.ltrans1.ltrans.o
                0x00000000080119f4                RadioGetStatus.lto_priv.0
 .text.RadioGetWakeupTime.lto_priv.0
                0x0000000008011a10        0x4 /tmp/loko_app.yhd4Rs.ltrans1.ltrans.o
                0x0000000008011a10                RadioGetWakeupTime.lto_priv.0
 .text.RadioCheckRfFrequency.lto_priv.0
                0x0000000008011a14        0x4 /tmp/loko_app.yhd4Rs.ltrans1.ltrans.o
                0x0000000008011a14                RadioCheckRfFrequency.lto_priv.0
 .text.RadioTimeOnAir.lto_priv.0
                0x0000000008011a18       0xec /tmp/loko_app.yhd4Rs.ltrans1.ltrans.o
                0x0000000008011a18                RadioTimeOnAir.lto_priv.0
 .text.RadioOnTxTimeoutIrq
                0x0000000008011b04       0x14 /tmp/loko_app.yhd4Rs.ltrans1.ltrans.o
 .text.RadioOnRxTimeoutIrq
                0x0000000008011b18       0x14 /tmp/loko_app.yhd4Rs.ltrans1.ltrans.o
 .text.SUBGRF_GetFskBandwidthRegValue
                0x0000000008011b2c       0x28 /tmp/loko_app.yhd4Rs.ltrans1.ltrans.o
 .text.ADC_DMAError
                0x0000000008011b54       0x14 /tmp/loko_app.yhd4Rs.ltrans1.ltrans.o
 .text.LL_RCC_HSE_IsEnabledDiv2.lto_priv.0
                0x0000000008011b68        0xc /tmp/loko_app.yhd4Rs.ltrans1.ltrans.o
 .text.LL_RCC_MSI_IsEnabledRangeSelect.lto_priv.0
                0x0000000008011b74        0xc /tmp/loko_app.yhd4Rs.ltrans1.ltrans.o
 .text.ADC_DMAConvCplt
                0x0000000008011b80       0x70 /tmp/loko_app.yhd4Rs.ltrans1.ltrans.o
 .text.ADC_DMAHalfConvCplt
                0x0000000008011bf0        0x2 /tmp/loko_app.yhd4Rs.ltrans1.ltrans.o
 *fill*         0x0000000008011bf2        0x2 
 .text.DMA_CalcDMAMUXChannelBaseAndMask
                0x0000000008011bf4       0x4c /tmp/loko_app.yhd4Rs.ltrans1.ltrans.o
 .text.HAL_GPIO_Init.constprop.0
                0x0000000008011c40      0x134 /tmp/loko_app.yhd4Rs.ltrans1.ltrans.o
 .text.SUBGRF_ReadRegister
                0x0000000008011d74       0x16 /tmp/loko_app.yhd4Rs.ltrans1.ltrans.o
 .text.SUBGRF_WriteRegister
                0x0000000008011d8a       0x16 /tmp/loko_app.yhd4Rs.ltrans1.ltrans.o
 .text.SUBGRF_SetWhiteningSeed
                0x0000000008011da0       0x38 /tmp/loko_app.yhd4Rs.ltrans1.ltrans.o
 .text.Radio_SMPS_Set
                0x0000000008011dd8       0x1e /tmp/loko_app.yhd4Rs.ltrans1.ltrans.o
 .text.SUBGRF_SetSwitch
                0x0000000008011df6       0x2c /tmp/loko_app.yhd4Rs.ltrans1.ltrans.o
 .text.SUBGRF_WriteCommand
                0x0000000008011e22        0xc /tmp/loko_app.yhd4Rs.ltrans1.ltrans.o
 *fill*         0x0000000008011e2e        0x2 
 .text.SUBGRF_SetTx
                0x0000000008011e30       0x2c /tmp/loko_app.yhd4Rs.ltrans1.ltrans.o
 .text.SUBGRF_SetRx
                0x0000000008011e5c       0x2c /tmp/loko_app.yhd4Rs.ltrans1.ltrans.o
 .text.SUBGRF_SetStopRxTimerOnPreambleDetect
                0x0000000008011e88       0x18 /tmp/loko_app.yhd4Rs.ltrans1.ltrans.o
 .text.SUBGRF_SetLoRaSymbNumTimeout
                0x0000000008011ea0       0x30 /tmp/loko_app.yhd4Rs.ltrans1.ltrans.o
 .text.SUBGRF_SetRfFrequency
                0x0000000008011ed0       0xb8 /tmp/loko_app.yhd4Rs.ltrans1.ltrans.o
 .text.RadioSetChannel.lto_priv.0
                0x0000000008011f88        0x4 /tmp/loko_app.yhd4Rs.ltrans1.ltrans.o
                0x0000000008011f88                RadioSetChannel.lto_priv.0
 .text.SUBGRF_SetPacketType
                0x0000000008011f8c       0x2c /tmp/loko_app.yhd4Rs.ltrans1.ltrans.o
 .text.RadioSetModem.lto_priv.0
                0x0000000008011fb8       0x44 /tmp/loko_app.yhd4Rs.ltrans1.ltrans.o
                0x0000000008011fb8                RadioSetModem.lto_priv.0
 .text.RadioSetPublicNetwork.lto_priv.0
                0x0000000008011ffc       0x3c /tmp/loko_app.yhd4Rs.ltrans1.ltrans.o
                0x0000000008011ffc                RadioSetPublicNetwork.lto_priv.0
 .text.SUBGRF_SetModulationParams.constprop.0
                0x0000000008012038      0x104 /tmp/loko_app.yhd4Rs.ltrans1.ltrans.o
 .text.SUBGRF_SetStandby.constprop.0
                0x000000000801213c       0x30 /tmp/loko_app.yhd4Rs.ltrans1.ltrans.o
 .text.RadioStandby.lto_priv.0
                0x000000000801216c        0x4 /tmp/loko_app.yhd4Rs.ltrans1.ltrans.o
                0x000000000801216c                RadioStandby.lto_priv.0
 .text.SUBGRF_SetDioIrqParams.constprop.0
                0x0000000008012170       0x38 /tmp/loko_app.yhd4Rs.ltrans1.ltrans.o
 .text.RadioRandom.lto_priv.0
                0x00000000080121a8       0x72 /tmp/loko_app.yhd4Rs.ltrans1.ltrans.o
                0x00000000080121a8                RadioRandom.lto_priv.0
 *fill*         0x000000000801221a        0x2 
 .text.RadioRx.lto_priv.0
                0x000000000801221c       0x48 /tmp/loko_app.yhd4Rs.ltrans1.ltrans.o
                0x000000000801221c                RadioRx.lto_priv.0
 .text.SUBGRF_SetPaConfig.constprop.0
                0x0000000008012264       0x26 /tmp/loko_app.yhd4Rs.ltrans1.ltrans.o
 .text.SUBGRF_SetTxParams
                0x000000000801228a       0x7a /tmp/loko_app.yhd4Rs.ltrans1.ltrans.o
 .text.SUBGRF_SetRfTxPower
                0x0000000008012304       0x10 /tmp/loko_app.yhd4Rs.ltrans1.ltrans.o
 .text.RadioSetTxContinuousWave.lto_priv.0
                0x0000000008012314       0x3c /tmp/loko_app.yhd4Rs.ltrans1.ltrans.o
                0x0000000008012314                RadioSetTxContinuousWave.lto_priv.0
 .text.SUBGRF_ReadCommand
                0x0000000008012350        0xc /tmp/loko_app.yhd4Rs.ltrans1.ltrans.o
 .text.LoRaMacClassBHaltBeaconing
                0x000000000801235c        0x2 /tmp/loko_app.yhd4Rs.ltrans1.ltrans.o
                0x000000000801235c                LoRaMacClassBHaltBeaconing
                0x000000000801235c                SystemInit
 *fill*         0x000000000801235e        0x2 
 .text.LoRaMacConfirmQueueSetStatus
                0x0000000008012360       0x24 /tmp/loko_app.yhd4Rs.ltrans1.ltrans.o
                0x0000000008012360                LoRaMacConfirmQueueSetStatus
 .text.LoRaMacConfirmQueueSetStatusCmn
                0x0000000008012384       0x34 /tmp/loko_app.yhd4Rs.ltrans1.ltrans.o
                0x0000000008012384                LoRaMacConfirmQueueSetStatusCmn
 .text.LoRaMacConfirmQueueIsCmdActive
                0x00000000080123b8       0x18 /tmp/loko_app.yhd4Rs.ltrans1.ltrans.o
                0x00000000080123b8                LoRaMacConfirmQueueIsCmdActive
 .text.PayloadEncrypt.lto_priv.0
                0x00000000080123d0       0xc0 /tmp/loko_app.yhd4Rs.ltrans1.ltrans.o
                0x00000000080123d0                PayloadEncrypt.lto_priv.0
 .text.DeriveSessionKey10x.lto_priv.0
                0x0000000008012490       0x4c /tmp/loko_app.yhd4Rs.ltrans1.ltrans.o
                0x0000000008012490                DeriveSessionKey10x.lto_priv.0
 .text.LoRaMacCryptoDeriveMcKEKey.part.0
                0x00000000080124dc       0x22 /tmp/loko_app.yhd4Rs.ltrans1.ltrans.o
                0x00000000080124dc                LoRaMacCryptoDeriveMcKEKey.part.0
 *fill*         0x00000000080124fe        0x2 
 .text.LoRaMacCryptoSetKey
                0x0000000008012500       0x2c /tmp/loko_app.yhd4Rs.ltrans1.ltrans.o
                0x0000000008012500                LoRaMacCryptoSetKey
 .text.randr    0x000000000801252c       0x1a /tmp/loko_app.yhd4Rs.ltrans1.ltrans.o
                0x000000000801252c                randr
 *fill*         0x0000000008012546        0x2 
 .text.VerifyRfFreq.lto_priv.0
                0x0000000008012548       0x24 /tmp/loko_app.yhd4Rs.ltrans1.ltrans.o
                0x0000000008012548                VerifyRfFreq.lto_priv.0
 .text.VerifyRfFreq.lto_priv.1.lto_priv.0
                0x000000000801256c       0x38 /tmp/loko_app.yhd4Rs.ltrans1.ltrans.o
                0x000000000801256c                VerifyRfFreq.lto_priv.1.lto_priv.0
                0x000000000801256c                VerifyRfFreq.lto_priv.9.lto_priv.0
 .text.VerifyRfFreq.lto_priv.2
                0x00000000080125a4       0x1c /tmp/loko_app.yhd4Rs.ltrans1.ltrans.o
                0x00000000080125a4                VerifyRfFreq.lto_priv.2
 .text.VerifyRfFreq.lto_priv.3
                0x00000000080125c0       0x24 /tmp/loko_app.yhd4Rs.ltrans1.ltrans.o
                0x00000000080125c0                VerifyRfFreq.lto_priv.3
 .text.RegionCommonChanDisable
                0x00000000080125e4       0x32 /tmp/loko_app.yhd4Rs.ltrans1.ltrans.o
                0x00000000080125e4                RegionCommonChanDisable
 .text.RegionCommonChanMaskCopy
                0x0000000008012616       0x1e /tmp/loko_app.yhd4Rs.ltrans1.ltrans.o
                0x0000000008012616                RegionCommonChanMaskCopy
 .text.RegionCommonParseLinkAdrReq
                0x0000000008012634       0x34 /tmp/loko_app.yhd4Rs.ltrans1.ltrans.o
                0x0000000008012634                RegionCommonParseLinkAdrReq
 .text.RegionCommonComputeTxPower
                0x0000000008012668       0x2a /tmp/loko_app.yhd4Rs.ltrans1.ltrans.o
                0x0000000008012668                RegionCommonComputeTxPower
 *fill*         0x0000000008012692        0x2 
 .text.RegionCommonGetBandwidth
                0x0000000008012694       0x24 /tmp/loko_app.yhd4Rs.ltrans1.ltrans.o
                0x0000000008012694                RegionCommonGetBandwidth
 .text.GetTimeOnAir.lto_priv.0.lto_priv.0
                0x00000000080126b8       0x4c /tmp/loko_app.yhd4Rs.ltrans1.ltrans.o
                0x00000000080126b8                GetTimeOnAir.lto_priv.8.lto_priv.0
                0x00000000080126b8                GetTimeOnAir.lto_priv.6.lto_priv.0
                0x00000000080126b8                GetTimeOnAir.lto_priv.3.lto_priv.0
                0x00000000080126b8                GetTimeOnAir.lto_priv.0.lto_priv.0
                0x00000000080126b8                GetTimeOnAir.lto_priv.5.lto_priv.0
                0x00000000080126b8                GetTimeOnAir.lto_priv.4.lto_priv.0
 .text.RegionAS923ComputeRxWindowParameters
                0x0000000008012704       0x5c /tmp/loko_app.yhd4Rs.ltrans1.ltrans.o
 .text.RegionComputeRxWindowParameters
                0x0000000008012760      0x118 /tmp/loko_app.yhd4Rs.ltrans1.ltrans.o
                0x0000000008012760                RegionComputeRxWindowParameters
 .text.GetTimeOnAir.lto_priv.1
                0x0000000008012878       0x34 /tmp/loko_app.yhd4Rs.ltrans1.ltrans.o
                0x0000000008012878                GetTimeOnAir.lto_priv.1
 .text.GetTimeOnAir.lto_priv.2
                0x00000000080128ac       0x34 /tmp/loko_app.yhd4Rs.ltrans1.ltrans.o
                0x00000000080128ac                GetTimeOnAir.lto_priv.2
 .text.RegionCommonRxConfigPrint
                0x00000000080128e0       0x3c /tmp/loko_app.yhd4Rs.ltrans1.ltrans.o
                0x00000000080128e0                RegionCommonRxConfigPrint
 .text.RegionCommonTxConfigPrint
                0x000000000801291c       0x10 /tmp/loko_app.yhd4Rs.ltrans1.ltrans.o
                0x000000000801291c                RegionCommonTxConfigPrint
 .text.RegionCommonChanVerifyDr.part.0
                0x000000000801292c       0x54 /tmp/loko_app.yhd4Rs.ltrans1.ltrans.o
                0x000000000801292c                RegionCommonChanVerifyDr.part.0
 .text.RegionCommonGetNextLowerTxDr
                0x0000000008012980       0x34 /tmp/loko_app.yhd4Rs.ltrans1.ltrans.o
 .text.RegionAS923GetPhyParam
                0x00000000080129b4      0x170 /tmp/loko_app.yhd4Rs.ltrans1.ltrans.o
                0x00000000080129b4                RegionAS923GetPhyParam
 .text.RegionAU915GetPhyParam
                0x0000000008012b24      0x184 /tmp/loko_app.yhd4Rs.ltrans1.ltrans.o
                0x0000000008012b24                RegionAU915GetPhyParam
 .text.RegionCN470GetPhyParam
                0x0000000008012ca8      0x20c /tmp/loko_app.yhd4Rs.ltrans1.ltrans.o
                0x0000000008012ca8                RegionCN470GetPhyParam
 .text.RegionGetPhyParam
                0x0000000008012eb4      0x788 /tmp/loko_app.yhd4Rs.ltrans1.ltrans.o
                0x0000000008012eb4                RegionGetPhyParam
 .text.VerifyRfFreq.lto_priv.4
                0x000000000801363c       0x24 /tmp/loko_app.yhd4Rs.ltrans1.ltrans.o
                0x000000000801363c                VerifyRfFreq.lto_priv.4
 .text.VerifyRfFreq.lto_priv.5
                0x0000000008013660       0x94 /tmp/loko_app.yhd4Rs.ltrans1.ltrans.o
                0x0000000008013660                VerifyRfFreq.lto_priv.5
 .text.VerifyRfFreq.lto_priv.6
                0x00000000080136f4       0x24 /tmp/loko_app.yhd4Rs.ltrans1.ltrans.o
                0x00000000080136f4                VerifyRfFreq.lto_priv.6
 .text.VerifyRfFreq.lto_priv.7
                0x0000000008013718       0x38 /tmp/loko_app.yhd4Rs.ltrans1.ltrans.o
                0x0000000008013718                VerifyRfFreq.lto_priv.7
 .text.GetTimeOnAir.lto_priv.7
                0x0000000008013750       0x34 /tmp/loko_app.yhd4Rs.ltrans1.ltrans.o
                0x0000000008013750                GetTimeOnAir.lto_priv.7
 .text.VerifyRfFreq.lto_priv.8
                0x0000000008013784       0x24 /tmp/loko_app.yhd4Rs.ltrans1.ltrans.o
                0x0000000008013784                VerifyRfFreq.lto_priv.8
 .text.RegionVerify
                0x00000000080137a8      0x310 /tmp/loko_app.yhd4Rs.ltrans1.ltrans.o
                0x00000000080137a8                RegionVerify
 .text.LoRaMacTestSetDutyCycleOn
                0x0000000008013ab8       0x24 /tmp/loko_app.yhd4Rs.ltrans1.ltrans.o
                0x0000000008013ab8                LoRaMacTestSetDutyCycleOn
 .text.GetTimeOnAir.lto_priv.9
                0x0000000008013adc       0x34 /tmp/loko_app.yhd4Rs.ltrans1.ltrans.o
                0x0000000008013adc                GetTimeOnAir.lto_priv.9
 .text.memcpy1  0x0000000008013b10       0x14 /tmp/loko_app.yhd4Rs.ltrans1.ltrans.o
                0x0000000008013b10                memcpy1
 .text.LoRaMacCommandsAddCmd
                0x0000000008013b24       0xa0 /tmp/loko_app.yhd4Rs.ltrans1.ltrans.o
                0x0000000008013b24                LoRaMacCommandsAddCmd
 .text.LoRaMacCommandsSerializeCmds
                0x0000000008013bc4       0x60 /tmp/loko_app.yhd4Rs.ltrans1.ltrans.o
                0x0000000008013bc4                LoRaMacCommandsSerializeCmds
 .text.LoRaMacParserData
                0x0000000008013c24       0xb2 /tmp/loko_app.yhd4Rs.ltrans1.ltrans.o
                0x0000000008013c24                LoRaMacParserData
 *fill*         0x0000000008013cd6        0x2 
 .text.RegionInitDefaults
                0x0000000008013cd8      0x66c /tmp/loko_app.yhd4Rs.ltrans1.ltrans.o
                0x0000000008013cd8                RegionInitDefaults
 .text.LoRaMacAdrCalcNext
                0x0000000008014344       0xda /tmp/loko_app.yhd4Rs.ltrans1.ltrans.o
                0x0000000008014344                LoRaMacAdrCalcNext
 *fill*         0x000000000801441e        0x2 
 .text.RegionAS923ChannelAdd
                0x0000000008014420       0x84 /tmp/loko_app.yhd4Rs.ltrans1.ltrans.o
                0x0000000008014420                RegionAS923ChannelAdd
 .text.RegionCN779ChannelAdd
                0x00000000080144a4       0x84 /tmp/loko_app.yhd4Rs.ltrans1.ltrans.o
                0x00000000080144a4                RegionCN779ChannelAdd
 .text.RegionEU433ChannelAdd
                0x0000000008014528       0x84 /tmp/loko_app.yhd4Rs.ltrans1.ltrans.o
                0x0000000008014528                RegionEU433ChannelAdd
 .text.RegionEU868ChannelAdd
                0x00000000080145ac       0x94 /tmp/loko_app.yhd4Rs.ltrans1.ltrans.o
                0x00000000080145ac                RegionEU868ChannelAdd
 .text.RegionIN865ChannelAdd
                0x0000000008014640       0x84 /tmp/loko_app.yhd4Rs.ltrans1.ltrans.o
                0x0000000008014640                RegionIN865ChannelAdd
 .text.RegionKR920ChannelAdd
                0x00000000080146c4       0x90 /tmp/loko_app.yhd4Rs.ltrans1.ltrans.o
                0x00000000080146c4                RegionKR920ChannelAdd
 .text.RegionRU864ChannelAdd
                0x0000000008014754       0x84 /tmp/loko_app.yhd4Rs.ltrans1.ltrans.o
                0x0000000008014754                RegionRU864ChannelAdd
 .text.memset1  0x00000000080147d8        0x4 /tmp/loko_app.yhd4Rs.ltrans1.ltrans.o
                0x00000000080147d8                memset1
 .text.LoRaMacMlmeRequest
                0x00000000080147dc      0x1e8 /tmp/loko_app.yhd4Rs.ltrans1.ltrans.o
                0x00000000080147dc                LoRaMacMlmeRequest
 .text.Crc32.part.0
                0x00000000080149c4       0x30 /tmp/loko_app.yhd4Rs.ltrans1.ltrans.o
                0x00000000080149c4                Crc32.part.0
 .text._lock.lto_priv.0
                0x00000000080149f4        0x2 /tmp/loko_app.yhd4Rs.ltrans1.ltrans.o
                0x00000000080149f4                _lock.lto_priv.0
 .text._unlock.lto_priv.0
                0x00000000080149f6        0x2 /tmp/loko_app.yhd4Rs.ltrans1.ltrans.o
                0x00000000080149f6                _unlock.lto_priv.0
 .text._save_request.lto_priv.0
                0x00000000080149f8       0x10 /tmp/loko_app.yhd4Rs.ltrans1.ltrans.o
                0x00000000080149f8                _save_request.lto_priv.0
 .text.settings_save
                0x0000000008014a08       0xec /tmp/loko_app.yhd4Rs.ltrans1.ltrans.o
                0x0000000008014a08                settings_save
 .text.settings_get_lora_app_key
                0x0000000008014af4       0x18 /tmp/loko_app.yhd4Rs.ltrans1.ltrans.o
                0x0000000008014af4                settings_get_lora_app_key
 .text.SUBGRF_WriteRegisters
                0x0000000008014b0c        0xc /tmp/loko_app.yhd4Rs.ltrans1.ltrans.o
                0x0000000008014b0c                SUBGRF_WriteRegisters
 .text.SUBGRF_SetCrcSeed
                0x0000000008014b18       0x28 /tmp/loko_app.yhd4Rs.ltrans1.ltrans.o
 .text.SUBGRF_SetCrcPolynomial
                0x0000000008014b40       0x28 /tmp/loko_app.yhd4Rs.ltrans1.ltrans.o
 .text.SUBGRF_SetPacketParams.constprop.0
                0x0000000008014b68       0xf0 /tmp/loko_app.yhd4Rs.ltrans1.ltrans.o
 .text.RadioSetRxConfig.lto_priv.0
                0x0000000008014c58      0x27c /tmp/loko_app.yhd4Rs.ltrans1.ltrans.o
                0x0000000008014c58                RadioSetRxConfig.lto_priv.0
 .text.RadioSetTxConfig.lto_priv.0
                0x0000000008014ed4      0x14c /tmp/loko_app.yhd4Rs.ltrans1.ltrans.o
                0x0000000008014ed4                RadioSetTxConfig.lto_priv.0
 .text.RadioSetMaxPayloadLength.lto_priv.0
                0x0000000008015020       0x28 /tmp/loko_app.yhd4Rs.ltrans1.ltrans.o
                0x0000000008015020                RadioSetMaxPayloadLength.lto_priv.0
 .text.__NVIC_SystemReset.lto_priv.0
                0x0000000008015048       0x24 /tmp/loko_app.yhd4Rs.ltrans1.ltrans.o
                0x0000000008015048                __NVIC_SystemReset.lto_priv.0
 .text.bsp_fatal_error
                0x000000000801506c       0x40 /tmp/loko_app.yhd4Rs.ltrans1.ltrans.o
                0x000000000801506c                bsp_fatal_error
 .text.LL_RCC_LSE_IsReady.lto_priv.0.lto_priv.0
                0x00000000080150ac        0xe /tmp/loko_app.yhd4Rs.ltrans1.ltrans.o
                0x00000000080150ac                LL_RCC_LSE_IsReady.lto_priv.2
                0x00000000080150ac                LL_RCC_LSE_IsReady.lto_priv.1.lto_priv.0
                0x00000000080150ac                LL_RCC_LSE_IsReady.lto_priv.0.lto_priv.0
 *fill*         0x00000000080150ba        0x2 
 .text.bsp_clock_switch
                0x00000000080150bc       0x90 /tmp/loko_app.yhd4Rs.ltrans1.ltrans.o
                0x00000000080150bc                bsp_clock_switch
 .text._flash_write.lto_priv.0
                0x000000000801514c       0x80 /tmp/loko_app.yhd4Rs.ltrans1.ltrans.o
                0x000000000801514c                _flash_write.lto_priv.0
 .text.bsp_flash_gnss_trace_erase
                0x00000000080151cc       0x18 /tmp/loko_app.yhd4Rs.ltrans1.ltrans.o
                0x00000000080151cc                bsp_flash_gnss_trace_erase
 .text.bsp_flash_lorawan_nvm_erase
                0x00000000080151e4        0x6 /tmp/loko_app.yhd4Rs.ltrans1.ltrans.o
                0x00000000080151e4                bsp_flash_lorawan_nvm_erase
 .text.LL_AHB2_GRP1_EnableClock.lto_priv.0.lto_priv.0
                0x00000000080151ea       0x18 /tmp/loko_app.yhd4Rs.ltrans1.ltrans.o
                0x00000000080151ea                LL_AHB2_GRP1_EnableClock.lto_priv.0.lto_priv.0
                0x00000000080151ea                LL_AHB2_GRP1_EnableClock.lto_priv.1.lto_priv.0
 *fill*         0x0000000008015202        0x2 
 .text.bsp_battery_measure
                0x0000000008015204      0x7e4 /tmp/loko_app.yhd4Rs.ltrans1.ltrans.o
                0x0000000008015204                bsp_battery_measure
 .text.bsp_gpio_is_button_pressed
                0x00000000080159e8        0xc /tmp/loko_app.yhd4Rs.ltrans1.ltrans.o
                0x00000000080159e8                bsp_gpio_is_button_pressed
 .text.bsp_gpio_is_usb_charger_connect
                0x00000000080159f4       0x10 /tmp/loko_app.yhd4Rs.ltrans1.ltrans.o
                0x00000000080159f4                bsp_gpio_is_usb_charger_connect
 .text.bsp_get_start_reason
                0x0000000008015a04       0x60 /tmp/loko_app.yhd4Rs.ltrans1.ltrans.o
                0x0000000008015a04                bsp_get_start_reason
 .text.bsp_uart_debug_write
                0x0000000008015a64       0x24 /tmp/loko_app.yhd4Rs.ltrans1.ltrans.o
                0x0000000008015a64                bsp_uart_debug_write
 .text.HAL_PWR_EnableWakeUpPin
                0x0000000008015a88       0x20 /tmp/loko_app.yhd4Rs.ltrans1.ltrans.o
                0x0000000008015a88                HAL_PWR_EnableWakeUpPin
 .text.RTC_ByteToBcd2
                0x0000000008015aa8       0x16 /tmp/loko_app.yhd4Rs.ltrans1.ltrans.o
                0x0000000008015aa8                RTC_ByteToBcd2
 *fill*         0x0000000008015abe        0x2 
 .text.LL_PWR_UnselectSUBGHZSPI_NSS.lto_priv.0
                0x0000000008015ac0       0x14 /tmp/loko_app.yhd4Rs.ltrans1.ltrans.o
                0x0000000008015ac0                LL_PWR_UnselectSUBGHZSPI_NSS.lto_priv.0
 .text.LL_PWR_SelectSUBGHZSPI_NSS.lto_priv.0
                0x0000000008015ad4       0x14 /tmp/loko_app.yhd4Rs.ltrans1.ltrans.o
                0x0000000008015ad4                LL_PWR_SelectSUBGHZSPI_NSS.lto_priv.0
 .text.RadioIrqProcess.lto_priv.0
                0x0000000008015ae8      0x3e8 /tmp/loko_app.yhd4Rs.ltrans1.ltrans.o
                0x0000000008015ae8                RadioIrqProcess.lto_priv.0
 .text.RadioOnDioIrq
                0x0000000008015ed0       0x10 /tmp/loko_app.yhd4Rs.ltrans1.ltrans.o
 .text.SUBGRF_SendPayload
                0x0000000008015ee0       0x64 /tmp/loko_app.yhd4Rs.ltrans1.ltrans.o
 .text.RadioSend.lto_priv.0
                0x0000000008015f44      0x168 /tmp/loko_app.yhd4Rs.ltrans1.ltrans.o
                0x0000000008015f44                RadioSend.lto_priv.0
 .text.HAL_Delay
                0x00000000080160ac       0x18 /tmp/loko_app.yhd4Rs.ltrans1.ltrans.o
                0x00000000080160ac                HAL_Delay
 .text.RadioIsChannelFree.lto_priv.0
                0x00000000080160c4       0x86 /tmp/loko_app.yhd4Rs.ltrans1.ltrans.o
                0x00000000080160c4                RadioIsChannelFree.lto_priv.0
 *fill*         0x000000000801614a        0x2 
 .text.RadioSleep.lto_priv.0
                0x000000000801614c       0x3c /tmp/loko_app.yhd4Rs.ltrans1.ltrans.o
                0x000000000801614c                RadioSleep.lto_priv.0
 .text.RadioInit.lto_priv.0
                0x0000000008016188      0x218 /tmp/loko_app.yhd4Rs.ltrans1.ltrans.o
                0x0000000008016188                RadioInit.lto_priv.0
 .text.LL_GPIO_SetPinMode.lto_priv.0
                0x00000000080163a0       0x2c /tmp/loko_app.yhd4Rs.ltrans1.ltrans.o
                0x00000000080163a0                LL_GPIO_SetPinMode.lto_priv.0
 .text.RCC_GetSystemClockFreq.lto_priv.0
                0x00000000080163cc      0x144 /tmp/loko_app.yhd4Rs.ltrans1.ltrans.o
                0x00000000080163cc                RCC_GetSystemClockFreq.lto_priv.0
 .text.NMI_Handler
                0x0000000008016510       0x18 /tmp/loko_app.yhd4Rs.ltrans1.ltrans.o
                0x0000000008016510                NMI_Handler
 .text.HardFault_Handler
                0x0000000008016528       0x18 /tmp/loko_app.yhd4Rs.ltrans1.ltrans.o
                0x0000000008016528                HardFault_Handler
 .text.MemManage_Handler
                0x0000000008016540       0x18 /tmp/loko_app.yhd4Rs.ltrans1.ltrans.o
                0x0000000008016540                MemManage_Handler
 .text.BusFault_Handler
                0x0000000008016558       0x18 /tmp/loko_app.yhd4Rs.ltrans1.ltrans.o
                0x0000000008016558                BusFault_Handler
 .text.UsageFault_Handler
                0x0000000008016570       0x18 /tmp/loko_app.yhd4Rs.ltrans1.ltrans.o
                0x0000000008016570                UsageFault_Handler
 .text.SVC_Handler
                0x0000000008016588        0x2 /tmp/loko_app.yhd4Rs.ltrans1.ltrans.o
                0x0000000008016588                SVC_Handler
 .text.DebugMon_Handler
                0x000000000801658a        0x2 /tmp/loko_app.yhd4Rs.ltrans1.ltrans.o
                0x000000000801658a                DebugMon_Handler
 .text.PendSV_Handler
                0x000000000801658c        0x2 /tmp/loko_app.yhd4Rs.ltrans1.ltrans.o
                0x000000000801658c                PendSV_Handler
 *fill*         0x000000000801658e        0x2 
 .text.SysTick_Handler
                0x0000000008016590       0x10 /tmp/loko_app.yhd4Rs.ltrans1.ltrans.o
                0x0000000008016590                SysTick_Handler
 .text.DMA1_Channel1_IRQHandler
                0x00000000080165a0        0x2 /tmp/loko_app.yhd4Rs.ltrans1.ltrans.o
                0x00000000080165a0                DMA1_Channel1_IRQHandler
 *fill*         0x00000000080165a2        0x2 
 .text.DMA1_Channel2_IRQHandler
                0x00000000080165a4       0xb4 /tmp/loko_app.yhd4Rs.ltrans1.ltrans.o
                0x00000000080165a4                DMA1_Channel2_IRQHandler
 .text.DMA1_Channel3_IRQHandler
                0x0000000008016658        0x2 /tmp/loko_app.yhd4Rs.ltrans1.ltrans.o
                0x0000000008016658                DMA1_Channel3_IRQHandler
 *fill*         0x000000000801665a        0x2 
 .text.SUBGHZ_Radio_IRQHandler
                0x000000000801665c       0xa4 /tmp/loko_app.yhd4Rs.ltrans1.ltrans.o
                0x000000000801665c                SUBGHZ_Radio_IRQHandler
 .text.USART1_IRQHandler
                0x0000000008016700       0x88 /tmp/loko_app.yhd4Rs.ltrans1.ltrans.o
                0x0000000008016700                USART1_IRQHandler
 .text.LPUART1_IRQHandler
                0x0000000008016788       0x88 /tmp/loko_app.yhd4Rs.ltrans1.ltrans.o
                0x0000000008016788                LPUART1_IRQHandler
 .text.TAMP_STAMP_LSECSS_SSRU_IRQHandler
                0x0000000008016810        0x2 /tmp/loko_app.yhd4Rs.ltrans1.ltrans.o
                0x0000000008016810                TAMP_STAMP_LSECSS_SSRU_IRQHandler
 *fill*         0x0000000008016812        0x2 
 .text.RTC_Alarm_IRQHandler
                0x0000000008016814       0xbc /tmp/loko_app.yhd4Rs.ltrans1.ltrans.o
                0x0000000008016814                RTC_Alarm_IRQHandler
 .text.WWDG_IRQHandler
                0x00000000080168d0        0x2 /tmp/loko_app.yhd4Rs.ltrans1.ltrans.o
                0x00000000080168d0                WWDG_IRQHandler
 .text.PVD_PVM_IRQHandler
                0x00000000080168d2        0x2 /tmp/loko_app.yhd4Rs.ltrans1.ltrans.o
                0x00000000080168d2                PVD_PVM_IRQHandler
 .text.RTC_WKUP_IRQHandler
                0x00000000080168d4        0x2 /tmp/loko_app.yhd4Rs.ltrans1.ltrans.o
                0x00000000080168d4                RTC_WKUP_IRQHandler
 .text.FLASH_IRQHandler
                0x00000000080168d6        0x2 /tmp/loko_app.yhd4Rs.ltrans1.ltrans.o
                0x00000000080168d6                FLASH_IRQHandler
 .text.RCC_IRQHandler
                0x00000000080168d8        0x2 /tmp/loko_app.yhd4Rs.ltrans1.ltrans.o
                0x00000000080168d8                RCC_IRQHandler
 .text.EXTI0_IRQHandler
                0x00000000080168da        0x2 /tmp/loko_app.yhd4Rs.ltrans1.ltrans.o
                0x00000000080168da                EXTI0_IRQHandler
 .text.EXTI1_IRQHandler
                0x00000000080168dc        0x2 /tmp/loko_app.yhd4Rs.ltrans1.ltrans.o
                0x00000000080168dc                EXTI1_IRQHandler
 .text.EXTI2_IRQHandler
                0x00000000080168de        0x2 /tmp/loko_app.yhd4Rs.ltrans1.ltrans.o
                0x00000000080168de                EXTI2_IRQHandler
 .text.EXTI3_IRQHandler
                0x00000000080168e0        0x2 /tmp/loko_app.yhd4Rs.ltrans1.ltrans.o
                0x00000000080168e0                EXTI3_IRQHandler
 .text.EXTI4_IRQHandler
                0x00000000080168e2        0x2 /tmp/loko_app.yhd4Rs.ltrans1.ltrans.o
                0x00000000080168e2                EXTI4_IRQHandler
 .text.DMA1_Channel4_IRQHandler
                0x00000000080168e4        0x2 /tmp/loko_app.yhd4Rs.ltrans1.ltrans.o
                0x00000000080168e4                DMA1_Channel4_IRQHandler
 .text.DMA1_Channel5_IRQHandler
                0x00000000080168e6        0x2 /tmp/loko_app.yhd4Rs.ltrans1.ltrans.o
                0x00000000080168e6                DMA1_Channel5_IRQHandler
 .text.DMA1_Channel6_IRQHandler
                0x00000000080168e8        0x2 /tmp/loko_app.yhd4Rs.ltrans1.ltrans.o
                0x00000000080168e8                DMA1_Channel6_IRQHandler
 .text.DMA1_Channel7_IRQHandler
                0x00000000080168ea        0x2 /tmp/loko_app.yhd4Rs.ltrans1.ltrans.o
                0x00000000080168ea                DMA1_Channel7_IRQHandler
 .text.ADC_IRQHandler
                0x00000000080168ec        0x2 /tmp/loko_app.yhd4Rs.ltrans1.ltrans.o
                0x00000000080168ec                ADC_IRQHandler
 .text.DAC_IRQHandler
                0x00000000080168ee        0x2 /tmp/loko_app.yhd4Rs.ltrans1.ltrans.o
                0x00000000080168ee                DAC_IRQHandler
 .text.COMP_IRQHandler
                0x00000000080168f0        0x2 /tmp/loko_app.yhd4Rs.ltrans1.ltrans.o
                0x00000000080168f0                COMP_IRQHandler
 .text.EXTI9_5_IRQHandler
                0x00000000080168f2        0x2 /tmp/loko_app.yhd4Rs.ltrans1.ltrans.o
                0x00000000080168f2                EXTI9_5_IRQHandler
 .text.TIM1_BRK_IRQHandler
                0x00000000080168f4        0x2 /tmp/loko_app.yhd4Rs.ltrans1.ltrans.o
                0x00000000080168f4                TIM1_BRK_IRQHandler
 .text.TIM1_UP_IRQHandler
                0x00000000080168f6        0x2 /tmp/loko_app.yhd4Rs.ltrans1.ltrans.o
                0x00000000080168f6                TIM1_UP_IRQHandler
 .text.TIM1_TRG_COM_IRQHandler
                0x00000000080168f8        0x2 /tmp/loko_app.yhd4Rs.ltrans1.ltrans.o
                0x00000000080168f8                TIM1_TRG_COM_IRQHandler
 .text.TIM1_CC_IRQHandler
                0x00000000080168fa        0x2 /tmp/loko_app.yhd4Rs.ltrans1.ltrans.o
                0x00000000080168fa                TIM1_CC_IRQHandler
 .text.TIM2_IRQHandler
                0x00000000080168fc        0x2 /tmp/loko_app.yhd4Rs.ltrans1.ltrans.o
                0x00000000080168fc                TIM2_IRQHandler
 .text.TIM16_IRQHandler
                0x00000000080168fe        0x2 /tmp/loko_app.yhd4Rs.ltrans1.ltrans.o
                0x00000000080168fe                TIM16_IRQHandler
 .text.TIM17_IRQHandler
                0x0000000008016900        0x2 /tmp/loko_app.yhd4Rs.ltrans1.ltrans.o
                0x0000000008016900                TIM17_IRQHandler
 .text.I2C1_EV_IRQHandler
                0x0000000008016902        0x2 /tmp/loko_app.yhd4Rs.ltrans1.ltrans.o
                0x0000000008016902                I2C1_EV_IRQHandler
 .text.I2C1_ER_IRQHandler
                0x0000000008016904        0x2 /tmp/loko_app.yhd4Rs.ltrans1.ltrans.o
                0x0000000008016904                I2C1_ER_IRQHandler
 .text.I2C2_EV_IRQHandler
                0x0000000008016906        0x2 /tmp/loko_app.yhd4Rs.ltrans1.ltrans.o
                0x0000000008016906                I2C2_EV_IRQHandler
 .text.I2C2_ER_IRQHandler
                0x0000000008016908        0x2 /tmp/loko_app.yhd4Rs.ltrans1.ltrans.o
                0x0000000008016908                I2C2_ER_IRQHandler
 .text.SPI1_IRQHandler
                0x000000000801690a        0x2 /tmp/loko_app.yhd4Rs.ltrans1.ltrans.o
                0x000000000801690a                SPI1_IRQHandler
 .text.SPI2_IRQHandler
                0x000000000801690c        0x2 /tmp/loko_app.yhd4Rs.ltrans1.ltrans.o
                0x000000000801690c                SPI2_IRQHandler
 .text.USART2_IRQHandler
                0x000000000801690e        0x2 /tmp/loko_app.yhd4Rs.ltrans1.ltrans.o
                0x000000000801690e                USART2_IRQHandler
 .text.LPTIM1_IRQHandler
                0x0000000008016910        0x2 /tmp/loko_app.yhd4Rs.ltrans1.ltrans.o
                0x0000000008016910                LPTIM1_IRQHandler
 .text.LPTIM2_IRQHandler
                0x0000000008016912        0x2 /tmp/loko_app.yhd4Rs.ltrans1.ltrans.o
                0x0000000008016912                LPTIM2_IRQHandler
 .text.EXTI15_10_IRQHandler
                0x0000000008016914        0x2 /tmp/loko_app.yhd4Rs.ltrans1.ltrans.o
                0x0000000008016914                EXTI15_10_IRQHandler
 .text.LPTIM3_IRQHandler
                0x0000000008016916        0x2 /tmp/loko_app.yhd4Rs.ltrans1.ltrans.o
                0x0000000008016916                LPTIM3_IRQHandler
 .text.SUBGHZSPI_IRQHandler
                0x0000000008016918        0x2 /tmp/loko_app.yhd4Rs.ltrans1.ltrans.o
                0x0000000008016918                SUBGHZSPI_IRQHandler
 .text.HSEM_IRQHandler
                0x000000000801691a        0x2 /tmp/loko_app.yhd4Rs.ltrans1.ltrans.o
                0x000000000801691a                HSEM_IRQHandler
 .text.I2C3_EV_IRQHandler
                0x000000000801691c        0x2 /tmp/loko_app.yhd4Rs.ltrans1.ltrans.o
                0x000000000801691c                I2C3_EV_IRQHandler
 .text.I2C3_ER_IRQHandler
                0x000000000801691e        0x2 /tmp/loko_app.yhd4Rs.ltrans1.ltrans.o
                0x000000000801691e                I2C3_ER_IRQHandler
 .text.AES_IRQHandler
                0x0000000008016920        0x2 /tmp/loko_app.yhd4Rs.ltrans1.ltrans.o
                0x0000000008016920                AES_IRQHandler
 .text.RNG_IRQHandler
                0x0000000008016922        0x2 /tmp/loko_app.yhd4Rs.ltrans1.ltrans.o
                0x0000000008016922                RNG_IRQHandler
 .text.PKA_IRQHandler
                0x0000000008016924        0x2 /tmp/loko_app.yhd4Rs.ltrans1.ltrans.o
                0x0000000008016924                PKA_IRQHandler
 .text.DMA2_Channel1_IRQHandler
                0x0000000008016926        0x2 /tmp/loko_app.yhd4Rs.ltrans1.ltrans.o
                0x0000000008016926                DMA2_Channel1_IRQHandler
 .text.DMA2_Channel2_IRQHandler
                0x0000000008016928        0x2 /tmp/loko_app.yhd4Rs.ltrans1.ltrans.o
                0x0000000008016928                DMA2_Channel2_IRQHandler
 .text.DMA2_Channel3_IRQHandler
                0x000000000801692a        0x2 /tmp/loko_app.yhd4Rs.ltrans1.ltrans.o
                0x000000000801692a                DMA2_Channel3_IRQHandler
 .text.DMA2_Channel4_IRQHandler
                0x000000000801692c        0x2 /tmp/loko_app.yhd4Rs.ltrans1.ltrans.o
                0x000000000801692c                DMA2_Channel4_IRQHandler
 .text.DMA2_Channel5_IRQHandler
                0x000000000801692e        0x2 /tmp/loko_app.yhd4Rs.ltrans1.ltrans.o
                0x000000000801692e                DMA2_Channel5_IRQHandler
 .text.DMA2_Channel6_IRQHandler
                0x0000000008016930        0x2 /tmp/loko_app.yhd4Rs.ltrans1.ltrans.o
                0x0000000008016930                DMA2_Channel6_IRQHandler
 .text.DMA2_Channel7_IRQHandler
                0x0000000008016932        0x2 /tmp/loko_app.yhd4Rs.ltrans1.ltrans.o
                0x0000000008016932                DMA2_Channel7_IRQHandler
 .text.DMAMUX1_OVR_IRQHandler
                0x0000000008016934        0x2 /tmp/loko_app.yhd4Rs.ltrans1.ltrans.o
                0x0000000008016934                DMAMUX1_OVR_IRQHandler
 *fill*         0x0000000008016936        0x2 
 .text.HAL_RCC_GetHCLKFreq
                0x0000000008016938      0x100 /tmp/loko_app.yhd4Rs.ltrans1.ltrans.o
                0x0000000008016938                HAL_RCC_GetHCLKFreq
 .text.HAL_RTC_WaitForSynchro.constprop.0
                0x0000000008016a38       0x30 /tmp/loko_app.yhd4Rs.ltrans2.ltrans.o
 .text.prv_parse_number.constprop.0
                0x0000000008016a68       0x3c /tmp/loko_app.yhd4Rs.ltrans2.ltrans.o
 .text.FLASH_WaitForLastOperation.constprop.0
                0x0000000008016aa4       0x5c /tmp/loko_app.yhd4Rs.ltrans2.ltrans.o
 .text.RegionCommonCountChannels.part.0.constprop.0
                0x0000000008016b00       0x36 /tmp/loko_app.yhd4Rs.ltrans2.ltrans.o
 .text.SysTimeToMs.isra.0
                0x0000000008016b36       0x32 /tmp/loko_app.yhd4Rs.ltrans2.ltrans.o
 .text.prv_parse_float_number.constprop.0
                0x0000000008016b68       0x18 /tmp/loko_app.yhd4Rs.ltrans2.ltrans.o
 .text.prv_parse_lat_long.constprop.0
                0x0000000008016b80       0x50 /tmp/loko_app.yhd4Rs.ltrans2.ltrans.o
 .text.RegionCommonLinkAdrReqVerifyParams.constprop.0
                0x0000000008016bd0       0x98 /tmp/loko_app.yhd4Rs.ltrans2.ltrans.o
 .text.prv_parse_term.constprop.0.isra.0
                0x0000000008016c68      0x2d4 /tmp/loko_app.yhd4Rs.ltrans2.ltrans.o
 .text._parse_uint32_value.constprop.0
                0x0000000008016f3c       0x18 /tmp/loko_app.yhd4Rs.ltrans2.ltrans.o
                0x0000000008016f3c                _parse_uint32_value.constprop.0
 .text._get_next_arg.constprop.0
                0x0000000008016f54       0x26 /tmp/loko_app.yhd4Rs.ltrans2.ltrans.o
                0x0000000008016f54                _get_next_arg.constprop.0
 *fill*         0x0000000008016f7a        0x2 
 .text.RTC_EnterInitMode.constprop.0
                0x0000000008016f7c       0x4c /tmp/loko_app.yhd4Rs.ltrans2.ltrans.o
                0x0000000008016f7c                RTC_EnterInitMode.constprop.0
 .text.RTC_ExitInitMode.constprop.0
                0x0000000008016fc8       0x4c /tmp/loko_app.yhd4Rs.ltrans2.ltrans.o
                0x0000000008016fc8                RTC_ExitInitMode.constprop.0
 .text.HAL_RTC_Init.constprop.0
                0x0000000008017014      0x140 /tmp/loko_app.yhd4Rs.ltrans2.ltrans.o
                0x0000000008017014                HAL_RTC_Init.constprop.0
 .text.HAL_RTCEx_SetSSRU_IT.constprop.0
                0x0000000008017154       0x50 /tmp/loko_app.yhd4Rs.ltrans2.ltrans.o
                0x0000000008017154                HAL_RTCEx_SetSSRU_IT.constprop.0
 .text.NVIC_EncodePriority.constprop.0
                0x00000000080171a4       0x2a /tmp/loko_app.yhd4Rs.ltrans2.ltrans.o
                0x00000000080171a4                NVIC_EncodePriority.constprop.0
 *fill*         0x00000000080171ce        0x2 
 .text.HAL_InitTick.constprop.0
                0x00000000080171d0       0x4c /tmp/loko_app.yhd4Rs.ltrans2.ltrans.o
                0x00000000080171d0                HAL_InitTick.constprop.0
 .text.queue_dequeue.constprop.0
                0x000000000801721c       0x34 /tmp/loko_app.yhd4Rs.ltrans2.ltrans.o
                0x000000000801721c                queue_dequeue.constprop.0
 .text.HAL_ADC_ConfigChannel.constprop.0
                0x0000000008017250      0x1b0 /tmp/loko_app.yhd4Rs.ltrans2.ltrans.o
                0x0000000008017250                HAL_ADC_ConfigChannel.constprop.0
 .text.GetLastFcntDown.constprop.0
                0x0000000008017400       0x48 /tmp/loko_app.yhd4Rs.ltrans2.ltrans.o
                0x0000000008017400                GetLastFcntDown.constprop.0
 .text.RegionCommonCountChannels.constprop.0
                0x0000000008017448        0x8 /tmp/loko_app.yhd4Rs.ltrans2.ltrans.o
                0x0000000008017448                RegionCommonCountChannels.constprop.0
 .text.GetElement.constprop.0
                0x0000000008017450       0x34 /tmp/loko_app.yhd4Rs.ltrans2.ltrans.o
                0x0000000008017450                GetElement.constprop.0
 .text.LoRaMacSerializerJoinRequest.constprop.0
                0x0000000008017484       0xa8 /tmp/loko_app.yhd4Rs.ltrans2.ltrans.o
                0x0000000008017484                LoRaMacSerializerJoinRequest.constprop.0
 .text.LoRaMacSerializerData.constprop.0
                0x000000000801752c      0x11c /tmp/loko_app.yhd4Rs.ltrans2.ltrans.o
                0x000000000801752c                LoRaMacSerializerData.constprop.0
 .text.RegionBaseUSComputeNext125kHzJoinChannel.constprop.0
                0x0000000008017648       0x8c /tmp/loko_app.yhd4Rs.ltrans2.ltrans.o
                0x0000000008017648                RegionBaseUSComputeNext125kHzJoinChannel.constprop.0
 .text.RegionCommonIdentifyChannels.constprop.0
                0x00000000080176d4      0x340 /tmp/loko_app.yhd4Rs.ltrans2.ltrans.o
                0x00000000080176d4                RegionCommonIdentifyChannels.constprop.0
 .text.LoRaMacHandleNvm.part.0.constprop.0
                0x0000000008017a14       0xf4 /tmp/loko_app.yhd4Rs.ltrans2.ltrans.o
                0x0000000008017a14                LoRaMacHandleNvm.part.0.constprop.0
 .text.LoRaMacCryptoDeriveMcRootKey.constprop.0
                0x0000000008017b08       0x34 /tmp/loko_app.yhd4Rs.ltrans2.ltrans.o
                0x0000000008017b08                LoRaMacCryptoDeriveMcRootKey.constprop.0
 .text.RegionRxConfig.constprop.0
                0x0000000008017b3c      0x6ec /tmp/loko_app.yhd4Rs.ltrans2.ltrans.o
                0x0000000008017b3c                RegionRxConfig.constprop.0
 .text.log_array.constprop.0
                0x0000000008018228       0x7c /tmp/loko_app.yhd4Rs.ltrans2.ltrans.o
                0x0000000008018228                log_array.constprop.0
 .text.lorawan_aes_set_key.part.0.constprop.0.isra.0
                0x00000000080182a4       0x7c /tmp/loko_app.yhd4Rs.ltrans2.ltrans.o
                0x00000000080182a4                lorawan_aes_set_key.part.0.constprop.0.isra.0
 .text.HAL_FLASH_Program.constprop.0.isra.0
                0x0000000008018320       0x50 /tmp/loko_app.yhd4Rs.ltrans2.ltrans.o
                0x0000000008018320                HAL_FLASH_Program.constprop.0.isra.0
 .text.UTIL_TIMER_Create.constprop.0.isra.0
                0x0000000008018370       0x1e /tmp/loko_app.yhd4Rs.ltrans2.ltrans.o
                0x0000000008018370                UTIL_TIMER_Create.constprop.0.isra.0
 .text.VerifyCmacB0.constprop.0.isra.0
                0x000000000801838e       0xb8 /tmp/loko_app.yhd4Rs.ltrans2.ltrans.o
                0x000000000801838e                VerifyCmacB0.constprop.0.isra.0
 *fill*         0x0000000008018446        0x2 
 .text.HAL_RTC_DeactivateAlarm.constprop.0.isra.0
                0x0000000008018448       0x50 /tmp/loko_app.yhd4Rs.ltrans2.ltrans.o
                0x0000000008018448                HAL_RTC_DeactivateAlarm.constprop.0.isra.0
 .text.lwgps_process.constprop.0.isra.0
                0x0000000008018498      0x1d0 /tmp/loko_app.yhd4Rs.ltrans2.ltrans.o
                0x0000000008018498                lwgps_process.constprop.0.isra.0
 .text.HAL_RTCEx_DeactivateWakeUpTimer.constprop.0.isra.0
                0x0000000008018668       0x74 /tmp/loko_app.yhd4Rs.ltrans2.ltrans.o
                0x0000000008018668                HAL_RTCEx_DeactivateWakeUpTimer.constprop.0.isra.0
 .text.SUBGHZ_WaitOnBusy.constprop.0.isra.0
                0x00000000080186dc       0x48 /tmp/loko_app.yhd4Rs.ltrans2.ltrans.o
                0x00000000080186dc                SUBGHZ_WaitOnBusy.constprop.0.isra.0
 .text.SUBGHZ_CheckDeviceReady.constprop.0.isra.0
                0x0000000008018724       0x3c /tmp/loko_app.yhd4Rs.ltrans2.ltrans.o
                0x0000000008018724                SUBGHZ_CheckDeviceReady.constprop.0.isra.0
 .text.SUBGHZSPI_Transmit.constprop.0.isra.0
                0x0000000008018760       0x6c /tmp/loko_app.yhd4Rs.ltrans2.ltrans.o
                0x0000000008018760                SUBGHZSPI_Transmit.constprop.0.isra.0
 .text.SUBGHZSPI_Receive.constprop.0.isra.0
                0x00000000080187cc       0x70 /tmp/loko_app.yhd4Rs.ltrans2.ltrans.o
                0x00000000080187cc                SUBGHZSPI_Receive.constprop.0.isra.0
 .text.HAL_SUBGHZ_ReadRegisters.constprop.0.isra.0
                0x000000000801883c       0x64 /tmp/loko_app.yhd4Rs.ltrans2.ltrans.o
                0x000000000801883c                HAL_SUBGHZ_ReadRegisters.constprop.0.isra.0
 .text.HAL_SUBGHZ_WriteRegisters.constprop.0.isra.0
                0x00000000080188a0       0x60 /tmp/loko_app.yhd4Rs.ltrans2.ltrans.o
                0x00000000080188a0                HAL_SUBGHZ_WriteRegisters.constprop.0.isra.0
 .text.HAL_SUBGHZ_ExecSetCmd.constprop.0.isra.0
                0x0000000008018900       0x64 /tmp/loko_app.yhd4Rs.ltrans2.ltrans.o
                0x0000000008018900                HAL_SUBGHZ_ExecSetCmd.constprop.0.isra.0
 .text.HAL_SUBGHZ_ExecGetCmd.constprop.0.isra.0
                0x0000000008018964       0x54 /tmp/loko_app.yhd4Rs.ltrans2.ltrans.o
                0x0000000008018964                HAL_SUBGHZ_ExecGetCmd.constprop.0.isra.0
 .text.LL_GPIO_Init.isra.0
                0x00000000080189b8      0x106 /tmp/loko_app.yhd4Rs.ltrans2.ltrans.o
                0x00000000080189b8                LL_GPIO_Init.isra.0
 *fill*         0x0000000008018abe        0x2 
 .text.HAL_FLASH_Lock.isra.0
                0x0000000008018ac0       0x14 /tmp/loko_app.yhd4Rs.ltrans2.ltrans.o
                0x0000000008018ac0                HAL_FLASH_Lock.isra.0
 .text.HAL_FLASH_Unlock.isra.0
                0x0000000008018ad4       0x20 /tmp/loko_app.yhd4Rs.ltrans2.ltrans.o
                0x0000000008018ad4                HAL_FLASH_Unlock.isra.0
 .text._flash_erase.constprop.0
                0x0000000008018af4       0x5c /tmp/loko_app.yhd4Rs.ltrans2.ltrans.o
                0x0000000008018af4                _flash_erase.constprop.0
 .text.RBI_ConfigRFSwitch.isra.0
                0x0000000008018b50       0x2c /tmp/loko_app.yhd4Rs.ltrans2.ltrans.o
                0x0000000008018b50                RBI_ConfigRFSwitch.isra.0
 .text.SUBGRF_SetSyncWord.isra.0
                0x0000000008018b7c        0xc /tmp/loko_app.yhd4Rs.ltrans2.ltrans.o
                0x0000000008018b7c                SUBGRF_SetSyncWord.isra.0
 .text.RegionRU864ChannelsRemove.isra.0
                0x0000000008018b88       0x30 /tmp/loko_app.yhd4Rs.ltrans2.ltrans.o
                0x0000000008018b88                RegionRU864ChannelsRemove.isra.0
 .text.RegionKR920ChannelsRemove.isra.0
                0x0000000008018bb8       0x30 /tmp/loko_app.yhd4Rs.ltrans2.ltrans.o
                0x0000000008018bb8                RegionKR920ChannelsRemove.isra.0
 .text.RegionIN865ChannelsRemove.isra.0
                0x0000000008018be8       0x30 /tmp/loko_app.yhd4Rs.ltrans2.ltrans.o
                0x0000000008018be8                RegionIN865ChannelsRemove.isra.0
 .text.RegionEU868ChannelsRemove.isra.0
                0x0000000008018c18       0x30 /tmp/loko_app.yhd4Rs.ltrans2.ltrans.o
                0x0000000008018c18                RegionEU868ChannelsRemove.isra.0
 .text.RegionEU433ChannelsRemove.isra.0
                0x0000000008018c48       0x30 /tmp/loko_app.yhd4Rs.ltrans2.ltrans.o
                0x0000000008018c48                RegionEU433ChannelsRemove.isra.0
 .text.RegionCommonSetBandTxDone.isra.0
                0x0000000008018c78       0x3c /tmp/loko_app.yhd4Rs.ltrans2.ltrans.o
                0x0000000008018c78                RegionCommonSetBandTxDone.isra.0
 .text.RegionCN779ChannelsRemove.isra.0
                0x0000000008018cb4       0x30 /tmp/loko_app.yhd4Rs.ltrans2.ltrans.o
                0x0000000008018cb4                RegionCN779ChannelsRemove.isra.0
 .text.RegionAS923ChannelsRemove.isra.0
                0x0000000008018ce4       0x30 /tmp/loko_app.yhd4Rs.ltrans2.ltrans.o
                0x0000000008018ce4                RegionAS923ChannelsRemove.isra.0
 .text.LoRaMacConfirmQueueAdd.isra.0
                0x0000000008018d14       0x3c /tmp/loko_app.yhd4Rs.ltrans2.ltrans.o
                0x0000000008018d14                LoRaMacConfirmQueueAdd.isra.0
 .text.LoRaMacCommandsRemoveCmd.isra.0
                0x0000000008018d50       0x50 /tmp/loko_app.yhd4Rs.ltrans2.ltrans.o
                0x0000000008018d50                LoRaMacCommandsRemoveCmd.isra.0
 .text.LoRaMacCommandsRemoveStickyAnsCmds.isra.0
                0x0000000008018da0       0x30 /tmp/loko_app.yhd4Rs.ltrans2.ltrans.o
                0x0000000008018da0                LoRaMacCommandsRemoveStickyAnsCmds.isra.0
 .text.StopRetransmission.isra.0
                0x0000000008018dd0       0x44 /tmp/loko_app.yhd4Rs.ltrans2.ltrans.o
                0x0000000008018dd0                StopRetransmission.isra.0
 .text.LmHandlerRequestClass.isra.0
                0x0000000008018e14       0x6c /tmp/loko_app.yhd4Rs.ltrans2.ltrans.o
                0x0000000008018e14                LmHandlerRequestClass.isra.0
 .text.lorawan_aes_encrypt.isra.0
                0x0000000008018e80       0x4a /tmp/loko_app.yhd4Rs.ltrans2.ltrans.o
                0x0000000008018e80                lorawan_aes_encrypt.isra.0
 .text.gtrace_get_record.isra.0
                0x0000000008018eca       0x4c /tmp/loko_app.yhd4Rs.ltrans2.ltrans.o
                0x0000000008018eca                gtrace_get_record.isra.0
 *fill*         0x0000000008018f16        0x2 
 .text.UTIL_TIMER_Start.isra.0
                0x0000000008018f18       0x84 /tmp/loko_app.yhd4Rs.ltrans2.ltrans.o
                0x0000000008018f18                UTIL_TIMER_Start.isra.0
 .text.UTIL_TIMER_Stop.isra.0
                0x0000000008018f9c       0x4c /tmp/loko_app.yhd4Rs.ltrans2.ltrans.o
                0x0000000008018f9c                UTIL_TIMER_Stop.isra.0
 .text.RxWindowSetup.constprop.0
                0x0000000008018fe8       0x3c /tmp/loko_app.yhd4Rs.ltrans2.ltrans.o
                0x0000000008018fe8                RxWindowSetup.constprop.0
 .text.LmHandlerNvmDataStore.isra.0
                0x0000000008019024       0xbc /tmp/loko_app.yhd4Rs.ltrans2.ltrans.o
                0x0000000008019024                LmHandlerNvmDataStore.isra.0
 .text.UTIL_TIMER_SetPeriod.isra.0
                0x00000000080190e0       0x30 /tmp/loko_app.yhd4Rs.ltrans2.ltrans.o
                0x00000000080190e0                UTIL_TIMER_SetPeriod.isra.0
 .text.ProcessMacCommands.constprop.0
                0x0000000008019110     0x1548 /tmp/loko_app.yhd4Rs.ltrans2.ltrans.o
                0x0000000008019110                ProcessMacCommands.constprop.0
 .text.Reset_Handler
                0x000000000801a658       0x50 out/libbsp_loko_app.a(startup_stm32wle5jcix.s.obj)
                0x000000000801a658                Reset_Handler
 .text.__assert_func
                0x000000000801a6a8       0x3c /usr/gcc-arm-none-eabi-10.3-2021.07/bin/../lib/gcc/arm-none-eabi/10.3.1/../../../../arm-none-eabi/lib/thumb/v7e-m/nofp/libg_nano.a(lib_a-assert.o)
                0x000000000801a6a8                __assert_func
 .text.__errno  0x000000000801a6e4        0xc /usr/gcc-arm-none-eabi-10.3-2021.07/bin/../lib/gcc/arm-none-eabi/10.3.1/../../../../arm-none-eabi/lib/thumb/v7e-m/nofp/libg_nano.a(lib_a-errno.o)
                0x000000000801a6e4                __errno
 .text.fprintf  0x000000000801a6f0       0x24 /usr/gcc-arm-none-eabi-10.3-2021.07/bin/../lib/gcc/arm-none-eabi/10.3.1/../../../../arm-none-eabi/lib/thumb/v7e-m/nofp/libg_nano.a(lib_a-fprintf.o)
                0x000000000801a6f0                fprintf
                0x000000000801a6f0                fiprintf
 .text.__libc_init_array
                0x000000000801a714       0x48 /usr/gcc-arm-none-eabi-10.3-2021.07/bin/../lib/gcc/arm-none-eabi/10.3.1/../../../../arm-none-eabi/lib/thumb/v7e-m/nofp/libg_nano.a(lib_a-init.o)
                0x000000000801a714                __libc_init_array
 .text.memset   0x000000000801a75c       0x10 /usr/gcc-arm-none-eabi-10.3-2021.07/bin/../lib/gcc/arm-none-eabi/10.3.1/../../../../arm-none-eabi/lib/thumb/v7e-m/nofp/libg_nano.a(lib_a-memset.o)
                0x000000000801a75c                memset
 .text.__sfputc_r
                0x000000000801a76c       0x2a /usr/gcc-arm-none-eabi-10.3-2021.07/bin/../lib/gcc/arm-none-eabi/10.3.1/../../../../arm-none-eabi/lib/thumb/v7e-m/nofp/libg_nano.a(lib_a-nano-vfprintf.o)
 .text.__sfputs_r
                0x000000000801a796       0x24 /usr/gcc-arm-none-eabi-10.3-2021.07/bin/../lib/gcc/arm-none-eabi/10.3.1/../../../../arm-none-eabi/lib/thumb/v7e-m/nofp/libg_nano.a(lib_a-nano-vfprintf.o)
                0x000000000801a796                __sfputs_r
 *fill*         0x000000000801a7ba        0x2 
 .text._vfprintf_r
                0x000000000801a7bc      0x260 /usr/gcc-arm-none-eabi-10.3-2021.07/bin/../lib/gcc/arm-none-eabi/10.3.1/../../../../arm-none-eabi/lib/thumb/v7e-m/nofp/libg_nano.a(lib_a-nano-vfprintf.o)
                0x000000000801a7bc                _vfiprintf_r
                0x000000000801a7bc                _vfprintf_r
 .text.__cvt    0x000000000801aa1c       0xc0 /usr/gcc-arm-none-eabi-10.3-2021.07/bin/../lib/gcc/arm-none-eabi/10.3.1/../../../../arm-none-eabi/lib/thumb/v7e-m/nofp/libg_nano.a(lib_a-nano-vfprintf_float.o)
                0x000000000801aa1c                __cvt
 .text.__exponent
                0x000000000801aadc       0x7c /usr/gcc-arm-none-eabi-10.3-2021.07/bin/../lib/gcc/arm-none-eabi/10.3.1/../../../../arm-none-eabi/lib/thumb/v7e-m/nofp/libg_nano.a(lib_a-nano-vfprintf_float.o)
                0x000000000801aadc                __exponent
 .text._printf_float
                0x000000000801ab58      0x454 /usr/gcc-arm-none-eabi-10.3-2021.07/bin/../lib/gcc/arm-none-eabi/10.3.1/../../../../arm-none-eabi/lib/thumb/v7e-m/nofp/libg_nano.a(lib_a-nano-vfprintf_float.o)
                0x000000000801ab58                _printf_float
 .text._printf_common
                0x000000000801afac       0xda /usr/gcc-arm-none-eabi-10.3-2021.07/bin/../lib/gcc/arm-none-eabi/10.3.1/../../../../arm-none-eabi/lib/thumb/v7e-m/nofp/libg_nano.a(lib_a-nano-vfprintf_i.o)
                0x000000000801afac                _printf_common
 *fill*         0x000000000801b086        0x2 
 .text._printf_i
                0x000000000801b088      0x24c /usr/gcc-arm-none-eabi-10.3-2021.07/bin/../lib/gcc/arm-none-eabi/10.3.1/../../../../arm-none-eabi/lib/thumb/v7e-m/nofp/libg_nano.a(lib_a-nano-vfprintf_i.o)
                0x000000000801b088                _printf_i
 .text.sulp     0x000000000801b2d4       0x42 /usr/gcc-arm-none-eabi-10.3-2021.07/bin/../lib/gcc/arm-none-eabi/10.3.1/../../../../arm-none-eabi/lib/thumb/v7e-m/nofp/libg_nano.a(lib_a-strtod.o)
 *fill*         0x000000000801b316        0x2 
 .text._strtod_l
                0x000000000801b318      0xbd0 /usr/gcc-arm-none-eabi-10.3-2021.07/bin/../lib/gcc/arm-none-eabi/10.3.1/../../../../arm-none-eabi/lib/thumb/v7e-m/nofp/libg_nano.a(lib_a-strtod.o)
                0x000000000801b318                _strtod_l
 .text.strtod   0x000000000801bee8       0x18 /usr/gcc-arm-none-eabi-10.3-2021.07/bin/../lib/gcc/arm-none-eabi/10.3.1/../../../../arm-none-eabi/lib/thumb/v7e-m/nofp/libg_nano.a(lib_a-strtod.o)
                0x000000000801bee8                strtod
 .text._strtoll_l.constprop.0
                0x000000000801bf00      0x12c /usr/gcc-arm-none-eabi-10.3-2021.07/bin/../lib/gcc/arm-none-eabi/10.3.1/../../../../arm-none-eabi/lib/thumb/v7e-m/nofp/libg_nano.a(lib_a-strtoll.o)
 .text.strtoll  0x000000000801c02c       0x14 /usr/gcc-arm-none-eabi-10.3-2021.07/bin/../lib/gcc/arm-none-eabi/10.3.1/../../../../arm-none-eabi/lib/thumb/v7e-m/nofp/libg_nano.a(lib_a-strtoll.o)
                0x000000000801c02c                strtoll
 .text._strtoull_l.constprop.0
                0x000000000801c040      0x130 /usr/gcc-arm-none-eabi-10.3-2021.07/bin/../lib/gcc/arm-none-eabi/10.3.1/../../../../arm-none-eabi/lib/thumb/v7e-m/nofp/libg_nano.a(lib_a-strtoull.o)
 .text.strtoull
                0x000000000801c170       0x14 /usr/gcc-arm-none-eabi-10.3-2021.07/bin/../lib/gcc/arm-none-eabi/10.3.1/../../../../arm-none-eabi/lib/thumb/v7e-m/nofp/libg_nano.a(lib_a-strtoull.o)
                0x000000000801c170                strtoull
 .text.__swbuf_r
                0x000000000801c184       0xa4 /usr/gcc-arm-none-eabi-10.3-2021.07/bin/../lib/gcc/arm-none-eabi/10.3.1/../../../../arm-none-eabi/lib/thumb/v7e-m/nofp/libg_nano.a(lib_a-wbuf.o)
                0x000000000801c184                __swbuf_r
 .text.__swsetup_r
                0x000000000801c228       0xdc /usr/gcc-arm-none-eabi-10.3-2021.07/bin/../lib/gcc/arm-none-eabi/10.3.1/../../../../arm-none-eabi/lib/thumb/v7e-m/nofp/libg_nano.a(lib_a-wsetup.o)
                0x000000000801c228                __swsetup_r
 .text.abort    0x000000000801c304        0xe /usr/gcc-arm-none-eabi-10.3-2021.07/bin/../lib/gcc/arm-none-eabi/10.3.1/../../../../arm-none-eabi/lib/thumb/v7e-m/nofp/libg_nano.a(lib_a-abort.o)
                0x000000000801c304                abort
 .text.quorem   0x000000000801c312      0x10e /usr/gcc-arm-none-eabi-10.3-2021.07/bin/../lib/gcc/arm-none-eabi/10.3.1/../../../../arm-none-eabi/lib/thumb/v7e-m/nofp/libg_nano.a(lib_a-dtoa.o)
 .text._dtoa_r  0x000000000801c420      0xbdc /usr/gcc-arm-none-eabi-10.3-2021.07/bin/../lib/gcc/arm-none-eabi/10.3.1/../../../../arm-none-eabi/lib/thumb/v7e-m/nofp/libg_nano.a(lib_a-dtoa.o)
                0x000000000801c420                _dtoa_r
 .text.__sflush_r
                0x000000000801cffc      0x104 /usr/gcc-arm-none-eabi-10.3-2021.07/bin/../lib/gcc/arm-none-eabi/10.3.1/../../../../arm-none-eabi/lib/thumb/v7e-m/nofp/libg_nano.a(lib_a-fflush.o)
                0x000000000801cffc                __sflush_r
 .text._fflush_r
                0x000000000801d100       0x78 /usr/gcc-arm-none-eabi-10.3-2021.07/bin/../lib/gcc/arm-none-eabi/10.3.1/../../../../arm-none-eabi/lib/thumb/v7e-m/nofp/libg_nano.a(lib_a-fflush.o)
                0x000000000801d100                _fflush_r
 .text.std      0x000000000801d178       0x48 /usr/gcc-arm-none-eabi-10.3-2021.07/bin/../lib/gcc/arm-none-eabi/10.3.1/../../../../arm-none-eabi/lib/thumb/v7e-m/nofp/libg_nano.a(lib_a-findfp.o)
 .text._cleanup_r
                0x000000000801d1c0        0xc /usr/gcc-arm-none-eabi-10.3-2021.07/bin/../lib/gcc/arm-none-eabi/10.3.1/../../../../arm-none-eabi/lib/thumb/v7e-m/nofp/libg_nano.a(lib_a-findfp.o)
                0x000000000801d1c0                _cleanup_r
 .text.__sfmoreglue
                0x000000000801d1cc       0x2c /usr/gcc-arm-none-eabi-10.3-2021.07/bin/../lib/gcc/arm-none-eabi/10.3.1/../../../../arm-none-eabi/lib/thumb/v7e-m/nofp/libg_nano.a(lib_a-findfp.o)
                0x000000000801d1cc                __sfmoreglue
 .text.__sfp_lock_acquire
                0x000000000801d1f8        0xc /usr/gcc-arm-none-eabi-10.3-2021.07/bin/../lib/gcc/arm-none-eabi/10.3.1/../../../../arm-none-eabi/lib/thumb/v7e-m/nofp/libg_nano.a(lib_a-findfp.o)
                0x000000000801d1f8                __sfp_lock_acquire
 .text.__sfp_lock_release
                0x000000000801d204        0xc /usr/gcc-arm-none-eabi-10.3-2021.07/bin/../lib/gcc/arm-none-eabi/10.3.1/../../../../arm-none-eabi/lib/thumb/v7e-m/nofp/libg_nano.a(lib_a-findfp.o)
                0x000000000801d204                __sfp_lock_release
 .text.__sinit_lock_acquire
                0x000000000801d210        0xc /usr/gcc-arm-none-eabi-10.3-2021.07/bin/../lib/gcc/arm-none-eabi/10.3.1/../../../../arm-none-eabi/lib/thumb/v7e-m/nofp/libg_nano.a(lib_a-findfp.o)
                0x000000000801d210                __sinit_lock_acquire
 .text.__sinit_lock_release
                0x000000000801d21c        0xc /usr/gcc-arm-none-eabi-10.3-2021.07/bin/../lib/gcc/arm-none-eabi/10.3.1/../../../../arm-none-eabi/lib/thumb/v7e-m/nofp/libg_nano.a(lib_a-findfp.o)
                0x000000000801d21c                __sinit_lock_release
 .text.__sinit  0x000000000801d228       0x70 /usr/gcc-arm-none-eabi-10.3-2021.07/bin/../lib/gcc/arm-none-eabi/10.3.1/../../../../arm-none-eabi/lib/thumb/v7e-m/nofp/libg_nano.a(lib_a-findfp.o)
                0x000000000801d228                __sinit
 .text.__sfp    0x000000000801d298       0x8c /usr/gcc-arm-none-eabi-10.3-2021.07/bin/../lib/gcc/arm-none-eabi/10.3.1/../../../../arm-none-eabi/lib/thumb/v7e-m/nofp/libg_nano.a(lib_a-findfp.o)
                0x000000000801d298                __sfp
 .text._fwalk_reent
                0x000000000801d324       0x3e /usr/gcc-arm-none-eabi-10.3-2021.07/bin/../lib/gcc/arm-none-eabi/10.3.1/../../../../arm-none-eabi/lib/thumb/v7e-m/nofp/libg_nano.a(lib_a-fwalk.o)
                0x000000000801d324                _fwalk_reent
 .text.rshift   0x000000000801d362       0xa4 /usr/gcc-arm-none-eabi-10.3-2021.07/bin/../lib/gcc/arm-none-eabi/10.3.1/../../../../arm-none-eabi/lib/thumb/v7e-m/nofp/libg_nano.a(lib_a-gdtoa-gethex.o)
 .text.__hexdig_fun
                0x000000000801d406       0x2a /usr/gcc-arm-none-eabi-10.3-2021.07/bin/../lib/gcc/arm-none-eabi/10.3.1/../../../../arm-none-eabi/lib/thumb/v7e-m/nofp/libg_nano.a(lib_a-gdtoa-gethex.o)
                0x000000000801d406                __hexdig_fun
 .text.__gethex
                0x000000000801d430      0x478 /usr/gcc-arm-none-eabi-10.3-2021.07/bin/../lib/gcc/arm-none-eabi/10.3.1/../../../../arm-none-eabi/lib/thumb/v7e-m/nofp/libg_nano.a(lib_a-gdtoa-gethex.o)
                0x000000000801d430                __gethex
 .text.L_shift  0x000000000801d8a8       0x24 /usr/gcc-arm-none-eabi-10.3-2021.07/bin/../lib/gcc/arm-none-eabi/10.3.1/../../../../arm-none-eabi/lib/thumb/v7e-m/nofp/libg_nano.a(lib_a-gdtoa-hexnan.o)
 .text.__match  0x000000000801d8cc       0x28 /usr/gcc-arm-none-eabi-10.3-2021.07/bin/../lib/gcc/arm-none-eabi/10.3.1/../../../../arm-none-eabi/lib/thumb/v7e-m/nofp/libg_nano.a(lib_a-gdtoa-hexnan.o)
                0x000000000801d8cc                __match
 .text.__hexnan
                0x000000000801d8f4      0x138 /usr/gcc-arm-none-eabi-10.3-2021.07/bin/../lib/gcc/arm-none-eabi/10.3.1/../../../../arm-none-eabi/lib/thumb/v7e-m/nofp/libg_nano.a(lib_a-gdtoa-hexnan.o)
                0x000000000801d8f4                __hexnan
 .text._localeconv_r
                0x000000000801da2c        0x8 /usr/gcc-arm-none-eabi-10.3-2021.07/bin/../lib/gcc/arm-none-eabi/10.3.1/../../../../arm-none-eabi/lib/thumb/v7e-m/nofp/libg_nano.a(lib_a-localeconv.o)
                0x000000000801da2c                _localeconv_r
 .text.__retarget_lock_init_recursive
                0x000000000801da34        0x2 /usr/gcc-arm-none-eabi-10.3-2021.07/bin/../lib/gcc/arm-none-eabi/10.3.1/../../../../arm-none-eabi/lib/thumb/v7e-m/nofp/libg_nano.a(lib_a-lock.o)
                0x000000000801da34                __retarget_lock_init_recursive
 .text.__retarget_lock_acquire_recursive
                0x000000000801da36        0x2 /usr/gcc-arm-none-eabi-10.3-2021.07/bin/../lib/gcc/arm-none-eabi/10.3.1/../../../../arm-none-eabi/lib/thumb/v7e-m/nofp/libg_nano.a(lib_a-lock.o)
                0x000000000801da36                __retarget_lock_acquire_recursive
 .text.__retarget_lock_release_recursive
                0x000000000801da38        0x2 /usr/gcc-arm-none-eabi-10.3-2021.07/bin/../lib/gcc/arm-none-eabi/10.3.1/../../../../arm-none-eabi/lib/thumb/v7e-m/nofp/libg_nano.a(lib_a-lock.o)
                0x000000000801da38                __retarget_lock_release_recursive
 .text.__swhatbuf_r
                0x000000000801da3a       0x4a /usr/gcc-arm-none-eabi-10.3-2021.07/bin/../lib/gcc/arm-none-eabi/10.3.1/../../../../arm-none-eabi/lib/thumb/v7e-m/nofp/libg_nano.a(lib_a-makebuf.o)
                0x000000000801da3a                __swhatbuf_r
 .text.__smakebuf_r
                0x000000000801da84       0x80 /usr/gcc-arm-none-eabi-10.3-2021.07/bin/../lib/gcc/arm-none-eabi/10.3.1/../../../../arm-none-eabi/lib/thumb/v7e-m/nofp/libg_nano.a(lib_a-makebuf.o)
                0x000000000801da84                __smakebuf_r
 .text.malloc   0x000000000801db04       0x10 /usr/gcc-arm-none-eabi-10.3-2021.07/bin/../lib/gcc/arm-none-eabi/10.3.1/../../../../arm-none-eabi/lib/thumb/v7e-m/nofp/libg_nano.a(lib_a-malloc.o)
                0x000000000801db04                malloc
 .text.__ascii_mbtowc
                0x000000000801db14       0x24 /usr/gcc-arm-none-eabi-10.3-2021.07/bin/../lib/gcc/arm-none-eabi/10.3.1/../../../../arm-none-eabi/lib/thumb/v7e-m/nofp/libg_nano.a(lib_a-mbtowc_r.o)
                0x000000000801db14                __ascii_mbtowc
 .text.memcpy   0x000000000801db38       0x1c /usr/gcc-arm-none-eabi-10.3-2021.07/bin/../lib/gcc/arm-none-eabi/10.3.1/../../../../arm-none-eabi/lib/thumb/v7e-m/nofp/libg_nano.a(lib_a-memcpy-stub.o)
                0x000000000801db38                memcpy
 .text.memmove  0x000000000801db54       0x34 /usr/gcc-arm-none-eabi-10.3-2021.07/bin/../lib/gcc/arm-none-eabi/10.3.1/../../../../arm-none-eabi/lib/thumb/v7e-m/nofp/libg_nano.a(lib_a-memmove.o)
                0x000000000801db54                memmove
 .text._Balloc  0x000000000801db88       0x80 /usr/gcc-arm-none-eabi-10.3-2021.07/bin/../lib/gcc/arm-none-eabi/10.3.1/../../../../arm-none-eabi/lib/thumb/v7e-m/nofp/libg_nano.a(lib_a-mprec.o)
                0x000000000801db88                _Balloc
 .text._Bfree   0x000000000801dc08       0x44 /usr/gcc-arm-none-eabi-10.3-2021.07/bin/../lib/gcc/arm-none-eabi/10.3.1/../../../../arm-none-eabi/lib/thumb/v7e-m/nofp/libg_nano.a(lib_a-mprec.o)
                0x000000000801dc08                _Bfree
 .text.__multadd
                0x000000000801dc4c       0x8c /usr/gcc-arm-none-eabi-10.3-2021.07/bin/../lib/gcc/arm-none-eabi/10.3.1/../../../../arm-none-eabi/lib/thumb/v7e-m/nofp/libg_nano.a(lib_a-mprec.o)
                0x000000000801dc4c                __multadd
 .text.__s2b    0x000000000801dcd8       0x94 /usr/gcc-arm-none-eabi-10.3-2021.07/bin/../lib/gcc/arm-none-eabi/10.3.1/../../../../arm-none-eabi/lib/thumb/v7e-m/nofp/libg_nano.a(lib_a-mprec.o)
                0x000000000801dcd8                __s2b
 .text.__hi0bits
                0x000000000801dd6c       0x40 /usr/gcc-arm-none-eabi-10.3-2021.07/bin/../lib/gcc/arm-none-eabi/10.3.1/../../../../arm-none-eabi/lib/thumb/v7e-m/nofp/libg_nano.a(lib_a-mprec.o)
                0x000000000801dd6c                __hi0bits
 .text.__lo0bits
                0x000000000801ddac       0x5a /usr/gcc-arm-none-eabi-10.3-2021.07/bin/../lib/gcc/arm-none-eabi/10.3.1/../../../../arm-none-eabi/lib/thumb/v7e-m/nofp/libg_nano.a(lib_a-mprec.o)
                0x000000000801ddac                __lo0bits
 *fill*         0x000000000801de06        0x2 
 .text.__i2b    0x000000000801de08       0x2c /usr/gcc-arm-none-eabi-10.3-2021.07/bin/../lib/gcc/arm-none-eabi/10.3.1/../../../../arm-none-eabi/lib/thumb/v7e-m/nofp/libg_nano.a(lib_a-mprec.o)
                0x000000000801de08                __i2b
 .text.__multiply
                0x000000000801de34      0x150 /usr/gcc-arm-none-eabi-10.3-2021.07/bin/../lib/gcc/arm-none-eabi/10.3.1/../../../../arm-none-eabi/lib/thumb/v7e-m/nofp/libg_nano.a(lib_a-mprec.o)
                0x000000000801de34                __multiply
 .text.__pow5mult
                0x000000000801df84       0xb4 /usr/gcc-arm-none-eabi-10.3-2021.07/bin/../lib/gcc/arm-none-eabi/10.3.1/../../../../arm-none-eabi/lib/thumb/v7e-m/nofp/libg_nano.a(lib_a-mprec.o)
                0x000000000801df84                __pow5mult
 .text.__lshift
                0x000000000801e038       0xe0 /usr/gcc-arm-none-eabi-10.3-2021.07/bin/../lib/gcc/arm-none-eabi/10.3.1/../../../../arm-none-eabi/lib/thumb/v7e-m/nofp/libg_nano.a(lib_a-mprec.o)
                0x000000000801e038                __lshift
 .text.__mcmp   0x000000000801e118       0x36 /usr/gcc-arm-none-eabi-10.3-2021.07/bin/../lib/gcc/arm-none-eabi/10.3.1/../../../../arm-none-eabi/lib/thumb/v7e-m/nofp/libg_nano.a(lib_a-mprec.o)
                0x000000000801e118                __mcmp
 *fill*         0x000000000801e14e        0x2 
 .text.__mdiff  0x000000000801e150      0x110 /usr/gcc-arm-none-eabi-10.3-2021.07/bin/../lib/gcc/arm-none-eabi/10.3.1/../../../../arm-none-eabi/lib/thumb/v7e-m/nofp/libg_nano.a(lib_a-mprec.o)
                0x000000000801e150                __mdiff
 .text.__ulp    0x000000000801e260       0x4c /usr/gcc-arm-none-eabi-10.3-2021.07/bin/../lib/gcc/arm-none-eabi/10.3.1/../../../../arm-none-eabi/lib/thumb/v7e-m/nofp/libg_nano.a(lib_a-mprec.o)
                0x000000000801e260                __ulp
 .text.__b2d    0x000000000801e2ac       0xa8 /usr/gcc-arm-none-eabi-10.3-2021.07/bin/../lib/gcc/arm-none-eabi/10.3.1/../../../../arm-none-eabi/lib/thumb/v7e-m/nofp/libg_nano.a(lib_a-mprec.o)
                0x000000000801e2ac                __b2d
 .text.__d2b    0x000000000801e354       0xb8 /usr/gcc-arm-none-eabi-10.3-2021.07/bin/../lib/gcc/arm-none-eabi/10.3.1/../../../../arm-none-eabi/lib/thumb/v7e-m/nofp/libg_nano.a(lib_a-mprec.o)
                0x000000000801e354                __d2b
 .text.__ratio  0x000000000801e40c       0x5c /usr/gcc-arm-none-eabi-10.3-2021.07/bin/../lib/gcc/arm-none-eabi/10.3.1/../../../../arm-none-eabi/lib/thumb/v7e-m/nofp/libg_nano.a(lib_a-mprec.o)
                0x000000000801e40c                __ratio
 .text.__copybits
                0x000000000801e468       0x46 /usr/gcc-arm-none-eabi-10.3-2021.07/bin/../lib/gcc/arm-none-eabi/10.3.1/../../../../arm-none-eabi/lib/thumb/v7e-m/nofp/libg_nano.a(lib_a-mprec.o)
                0x000000000801e468                __copybits
 .text.__any_on
                0x000000000801e4ae       0x42 /usr/gcc-arm-none-eabi-10.3-2021.07/bin/../lib/gcc/arm-none-eabi/10.3.1/../../../../arm-none-eabi/lib/thumb/v7e-m/nofp/libg_nano.a(lib_a-mprec.o)
                0x000000000801e4ae                __any_on
 .text._calloc_r
                0x000000000801e4f0       0x28 /usr/gcc-arm-none-eabi-10.3-2021.07/bin/../lib/gcc/arm-none-eabi/10.3.1/../../../../arm-none-eabi/lib/thumb/v7e-m/nofp/libg_nano.a(lib_a-nano-callocr.o)
                0x000000000801e4f0                _calloc_r
 .text._free_r  0x000000000801e518       0x94 /usr/gcc-arm-none-eabi-10.3-2021.07/bin/../lib/gcc/arm-none-eabi/10.3.1/../../../../arm-none-eabi/lib/thumb/v7e-m/nofp/libg_nano.a(lib_a-nano-freer.o)
                0x000000000801e518                _free_r
 .text.sbrk_aligned
                0x000000000801e5ac       0x40 /usr/gcc-arm-none-eabi-10.3-2021.07/bin/../lib/gcc/arm-none-eabi/10.3.1/../../../../arm-none-eabi/lib/thumb/v7e-m/nofp/libg_nano.a(lib_a-nano-mallocr.o)
 .text._malloc_r
                0x000000000801e5ec       0xe8 /usr/gcc-arm-none-eabi-10.3-2021.07/bin/../lib/gcc/arm-none-eabi/10.3.1/../../../../arm-none-eabi/lib/thumb/v7e-m/nofp/libg_nano.a(lib_a-nano-mallocr.o)
                0x000000000801e5ec                _malloc_r
 .text._realloc_r
                0x000000000801e6d4       0x5e /usr/gcc-arm-none-eabi-10.3-2021.07/bin/../lib/gcc/arm-none-eabi/10.3.1/../../../../arm-none-eabi/lib/thumb/v7e-m/nofp/libg_nano.a(lib_a-nano-reallocr.o)
                0x000000000801e6d4                _realloc_r
 *fill*         0x000000000801e732        0x2 
 .text.nan      0x000000000801e734        0xc /usr/gcc-arm-none-eabi-10.3-2021.07/bin/../lib/gcc/arm-none-eabi/10.3.1/../../../../arm-none-eabi/lib/thumb/v7e-m/nofp/libg_nano.a(lib_a-s_nan.o)
                0x000000000801e734                nan
 .text._sbrk_r  0x000000000801e740       0x20 /usr/gcc-arm-none-eabi-10.3-2021.07/bin/../lib/gcc/arm-none-eabi/10.3.1/../../../../arm-none-eabi/lib/thumb/v7e-m/nofp/libg_nano.a(lib_a-sbrkr.o)
                0x000000000801e740                _sbrk_r
 .text._raise_r
                0x000000000801e760       0x50 /usr/gcc-arm-none-eabi-10.3-2021.07/bin/../lib/gcc/arm-none-eabi/10.3.1/../../../../arm-none-eabi/lib/thumb/v7e-m/nofp/libg_nano.a(lib_a-signal.o)
                0x000000000801e760                _raise_r
 .text.raise    0x000000000801e7b0       0x10 /usr/gcc-arm-none-eabi-10.3-2021.07/bin/../lib/gcc/arm-none-eabi/10.3.1/../../../../arm-none-eabi/lib/thumb/v7e-m/nofp/libg_nano.a(lib_a-signal.o)
                0x000000000801e7b0                raise
 .text._kill_r  0x000000000801e7c0       0x24 /usr/gcc-arm-none-eabi-10.3-2021.07/bin/../lib/gcc/arm-none-eabi/10.3.1/../../../../arm-none-eabi/lib/thumb/v7e-m/nofp/libg_nano.a(lib_a-signalr.o)
                0x000000000801e7c0                _kill_r
 .text._getpid_r
                0x000000000801e7e4        0x4 /usr/gcc-arm-none-eabi-10.3-2021.07/bin/../lib/gcc/arm-none-eabi/10.3.1/../../../../arm-none-eabi/lib/thumb/v7e-m/nofp/libg_nano.a(lib_a-signalr.o)
                0x000000000801e7e4                _getpid_r
 .text.__sread  0x000000000801e7e8       0x22 /usr/gcc-arm-none-eabi-10.3-2021.07/bin/../lib/gcc/arm-none-eabi/10.3.1/../../../../arm-none-eabi/lib/thumb/v7e-m/nofp/libg_nano.a(lib_a-stdio.o)
                0x000000000801e7e8                __sread
 .text.__swrite
                0x000000000801e80a       0x38 /usr/gcc-arm-none-eabi-10.3-2021.07/bin/../lib/gcc/arm-none-eabi/10.3.1/../../../../arm-none-eabi/lib/thumb/v7e-m/nofp/libg_nano.a(lib_a-stdio.o)
                0x000000000801e80a                __swrite
 .text.__sseek  0x000000000801e842       0x24 /usr/gcc-arm-none-eabi-10.3-2021.07/bin/../lib/gcc/arm-none-eabi/10.3.1/../../../../arm-none-eabi/lib/thumb/v7e-m/nofp/libg_nano.a(lib_a-stdio.o)
                0x000000000801e842                __sseek
 .text.__sclose
                0x000000000801e866        0x8 /usr/gcc-arm-none-eabi-10.3-2021.07/bin/../lib/gcc/arm-none-eabi/10.3.1/../../../../arm-none-eabi/lib/thumb/v7e-m/nofp/libg_nano.a(lib_a-stdio.o)
                0x000000000801e866                __sclose
 .text.strncmp  0x000000000801e86e       0x28 /usr/gcc-arm-none-eabi-10.3-2021.07/bin/../lib/gcc/arm-none-eabi/10.3.1/../../../../arm-none-eabi/lib/thumb/v7e-m/nofp/libg_nano.a(lib_a-strncmp.o)
                0x000000000801e86e                strncmp
 .text.__ascii_wctomb
                0x000000000801e896       0x1a /usr/gcc-arm-none-eabi-10.3-2021.07/bin/../lib/gcc/arm-none-eabi/10.3.1/../../../../arm-none-eabi/lib/thumb/v7e-m/nofp/libg_nano.a(lib_a-wctomb_r.o)
                0x000000000801e896                __ascii_wctomb
 .text._write_r
                0x000000000801e8b0       0x24 /usr/gcc-arm-none-eabi-10.3-2021.07/bin/../lib/gcc/arm-none-eabi/10.3.1/../../../../arm-none-eabi/lib/thumb/v7e-m/nofp/libg_nano.a(lib_a-writer.o)
                0x000000000801e8b0                _write_r
 .text._close_r
                0x000000000801e8d4       0x20 /usr/gcc-arm-none-eabi-10.3-2021.07/bin/../lib/gcc/arm-none-eabi/10.3.1/../../../../arm-none-eabi/lib/thumb/v7e-m/nofp/libg_nano.a(lib_a-closer.o)
                0x000000000801e8d4                _close_r
 .text._fstat_r
                0x000000000801e8f4       0x24 /usr/gcc-arm-none-eabi-10.3-2021.07/bin/../lib/gcc/arm-none-eabi/10.3.1/../../../../arm-none-eabi/lib/thumb/v7e-m/nofp/libg_nano.a(lib_a-fstatr.o)
                0x000000000801e8f4                _fstat_r
 .text._isatty_r
                0x000000000801e918       0x20 /usr/gcc-arm-none-eabi-10.3-2021.07/bin/../lib/gcc/arm-none-eabi/10.3.1/../../../../arm-none-eabi/lib/thumb/v7e-m/nofp/libg_nano.a(lib_a-isattyr.o)
                0x000000000801e918                _isatty_r
 .text._lseek_r
                0x000000000801e938       0x24 /usr/gcc-arm-none-eabi-10.3-2021.07/bin/../lib/gcc/arm-none-eabi/10.3.1/../../../../arm-none-eabi/lib/thumb/v7e-m/nofp/libg_nano.a(lib_a-lseekr.o)
                0x000000000801e938                _lseek_r
 .text.__malloc_lock
                0x000000000801e95c        0xc /usr/gcc-arm-none-eabi-10.3-2021.07/bin/../lib/gcc/arm-none-eabi/10.3.1/../../../../arm-none-eabi/lib/thumb/v7e-m/nofp/libg_nano.a(lib_a-mlock.o)
                0x000000000801e95c                __malloc_lock
 .text.__malloc_unlock
                0x000000000801e968        0xc /usr/gcc-arm-none-eabi-10.3-2021.07/bin/../lib/gcc/arm-none-eabi/10.3.1/../../../../arm-none-eabi/lib/thumb/v7e-m/nofp/libg_nano.a(lib_a-mlock.o)
                0x000000000801e968                __malloc_unlock
 .text._malloc_usable_size_r
                0x000000000801e974       0x10 /usr/gcc-arm-none-eabi-10.3-2021.07/bin/../lib/gcc/arm-none-eabi/10.3.1/../../../../arm-none-eabi/lib/thumb/v7e-m/nofp/libg_nano.a(lib_a-nano-msizer.o)
                0x000000000801e974                _malloc_usable_size_r
 .text._read_r  0x000000000801e984       0x24 /usr/gcc-arm-none-eabi-10.3-2021.07/bin/../lib/gcc/arm-none-eabi/10.3.1/../../../../arm-none-eabi/lib/thumb/v7e-m/nofp/libg_nano.a(lib_a-readr.o)
                0x000000000801e984                _read_r
 .text.memcmp   0x000000000801e9a8       0x20 /usr/gcc-arm-none-eabi-10.3-2021.07/bin/../lib/gcc/arm-none-eabi/10.3.1/../../../../arm-none-eabi/lib/thumb/v7e-m/nofp/libg_nano.a(lib_a-memcmp.o)
                0x000000000801e9a8                memcmp
 .text.snprintf
                0x000000000801e9c8       0x68 /usr/gcc-arm-none-eabi-10.3-2021.07/bin/../lib/gcc/arm-none-eabi/10.3.1/../../../../arm-none-eabi/lib/thumb/v7e-m/nofp/libg_nano.a(lib_a-snprintf.o)
                0x000000000801e9c8                snprintf
                0x000000000801e9c8                sniprintf
 .text.strncasecmp
                0x000000000801ea30       0x44 /usr/gcc-arm-none-eabi-10.3-2021.07/bin/../lib/gcc/arm-none-eabi/10.3.1/../../../../arm-none-eabi/lib/thumb/v7e-m/nofp/libg_nano.a(lib_a-strncasecmp.o)
                0x000000000801ea30                strncasecmp
 .text._vsnprintf_r
                0x000000000801ea74       0x56 /usr/gcc-arm-none-eabi-10.3-2021.07/bin/../lib/gcc/arm-none-eabi/10.3.1/../../../../arm-none-eabi/lib/thumb/v7e-m/nofp/libg_nano.a(lib_a-vsnprintf.o)
                0x000000000801ea74                _vsnprintf_r
                0x000000000801ea74                _vsniprintf_r
 *fill*         0x000000000801eaca        0x2 
 .text.vsnprintf
                0x000000000801eacc       0x1c /usr/gcc-arm-none-eabi-10.3-2021.07/bin/../lib/gcc/arm-none-eabi/10.3.1/../../../../arm-none-eabi/lib/thumb/v7e-m/nofp/libg_nano.a(lib_a-vsnprintf.o)
                0x000000000801eacc                vsnprintf
                0x000000000801eacc                vsniprintf
 .text.__ssputs_r
                0x000000000801eae8       0xb6 /usr/gcc-arm-none-eabi-10.3-2021.07/bin/../lib/gcc/arm-none-eabi/10.3.1/../../../../arm-none-eabi/lib/thumb/v7e-m/nofp/libg_nano.a(lib_a-nano-svfprintf.o)
                0x000000000801eae8                __ssputs_r
 *fill*         0x000000000801eb9e        0x2 
 .text._svfprintf_r
                0x000000000801eba0      0x200 /usr/gcc-arm-none-eabi-10.3-2021.07/bin/../lib/gcc/arm-none-eabi/10.3.1/../../../../arm-none-eabi/lib/thumb/v7e-m/nofp/libg_nano.a(lib_a-nano-svfprintf.o)
                0x000000000801eba0                _svfprintf_r
                0x000000000801eba0                _svfiprintf_r
 .text._close   0x000000000801eda0       0x10 /usr/gcc-arm-none-eabi-10.3-2021.07/bin/../lib/gcc/arm-none-eabi/10.3.1/../../../../arm-none-eabi/lib/thumb/v7e-m/nofp/libnosys.a(close.o)
                0x000000000801eda0                _close
 .text._fstat   0x000000000801edb0       0x10 /usr/gcc-arm-none-eabi-10.3-2021.07/bin/../lib/gcc/arm-none-eabi/10.3.1/../../../../arm-none-eabi/lib/thumb/v7e-m/nofp/libnosys.a(fstat.o)
                0x000000000801edb0                _fstat
 .text._getpid  0x000000000801edc0       0x10 /usr/gcc-arm-none-eabi-10.3-2021.07/bin/../lib/gcc/arm-none-eabi/10.3.1/../../../../arm-none-eabi/lib/thumb/v7e-m/nofp/libnosys.a(getpid.o)
                0x000000000801edc0                _getpid
 .text._isatty  0x000000000801edd0       0x10 /usr/gcc-arm-none-eabi-10.3-2021.07/bin/../lib/gcc/arm-none-eabi/10.3.1/../../../../arm-none-eabi/lib/thumb/v7e-m/nofp/libnosys.a(isatty.o)
                0x000000000801edd0                _isatty
 .text._kill    0x000000000801ede0       0x10 /usr/gcc-arm-none-eabi-10.3-2021.07/bin/../lib/gcc/arm-none-eabi/10.3.1/../../../../arm-none-eabi/lib/thumb/v7e-m/nofp/libnosys.a(kill.o)
                0x000000000801ede0                _kill
 .text._lseek   0x000000000801edf0       0x10 /usr/gcc-arm-none-eabi-10.3-2021.07/bin/../lib/gcc/arm-none-eabi/10.3.1/../../../../arm-none-eabi/lib/thumb/v7e-m/nofp/libnosys.a(lseek.o)
                0x000000000801edf0                _lseek
 .text._read    0x000000000801ee00       0x10 /usr/gcc-arm-none-eabi-10.3-2021.07/bin/../lib/gcc/arm-none-eabi/10.3.1/../../../../arm-none-eabi/lib/thumb/v7e-m/nofp/libnosys.a(read.o)
                0x000000000801ee00                _read
 .text._write   0x000000000801ee10       0x10 /usr/gcc-arm-none-eabi-10.3-2021.07/bin/../lib/gcc/arm-none-eabi/10.3.1/../../../../arm-none-eabi/lib/thumb/v7e-m/nofp/libnosys.a(write.o)
                0x000000000801ee10                _write
 .text._exit    0x000000000801ee20        0x4 /usr/gcc-arm-none-eabi-10.3-2021.07/bin/../lib/gcc/arm-none-eabi/10.3.1/../../../../arm-none-eabi/lib/thumb/v7e-m/nofp/libnosys.a(_exit.o)
                0x000000000801ee20                _exit
 *fill*         0x000000000801ee24        0x4 
 .text.floor    0x000000000801ee28       0xf8 /usr/gcc-arm-none-eabi-10.3-2021.07/bin/../lib/gcc/arm-none-eabi/10.3.1/../../../../arm-none-eabi/lib/thumb/v7e-m/nofp/libm.a(lib_a-s_floor.o)
                0x000000000801ee28                floor
 .text.round    0x000000000801ef20       0x94 /usr/gcc-arm-none-eabi-10.3-2021.07/bin/../lib/gcc/arm-none-eabi/10.3.1/../../../../arm-none-eabi/lib/thumb/v7e-m/nofp/libm.a(lib_a-s_round.o)
                0x000000000801ef20                round
 *(.glue_7)
 .glue_7        0x000000000801efb4        0x0 linker stubs
 *(.glue_7t)
 .glue_7t       0x000000000801efb4        0x0 linker stubs
 *(.eh_frame)
 .eh_frame      0x000000000801efb4        0x0 /usr/gcc-arm-none-eabi-10.3-2021.07/bin/../lib/gcc/arm-none-eabi/10.3.1/thumb/v7e-m/nofp/crtbegin.o
 *(.init)
 .init          0x000000000801efb4        0x4 /usr/gcc-arm-none-eabi-10.3-2021.07/bin/../lib/gcc/arm-none-eabi/10.3.1/thumb/v7e-m/nofp/crti.o
                0x000000000801efb4                _init
 .init          0x000000000801efb8        0x8 /usr/gcc-arm-none-eabi-10.3-2021.07/bin/../lib/gcc/arm-none-eabi/10.3.1/thumb/v7e-m/nofp/crtn.o
 *(.fini)
 .fini          0x000000000801efc0        0x4 /usr/gcc-arm-none-eabi-10.3-2021.07/bin/../lib/gcc/arm-none-eabi/10.3.1/thumb/v7e-m/nofp/crti.o
                0x000000000801efc0                _fini
 .fini          0x000000000801efc4        0x8 /usr/gcc-arm-none-eabi-10.3-2021.07/bin/../lib/gcc/arm-none-eabi/10.3.1/thumb/v7e-m/nofp/crtn.o
                0x000000000801efcc                . = ALIGN (0x4)
                0x000000000801efcc                _etext = .

.vfp11_veneer   0x000000000801efcc        0x0
 .vfp11_veneer  0x000000000801efcc        0x0 linker stubs

.v4_bx          0x000000000801efcc        0x0
 .v4_bx         0x000000000801efcc        0x0 linker stubs

.iplt           0x000000000801efcc        0x0
 .iplt          0x000000000801efcc        0x0 /usr/gcc-arm-none-eabi-10.3-2021.07/bin/../lib/gcc/arm-none-eabi/10.3.1/thumb/v7e-m/nofp/crtbegin.o

.rodata         0x000000000801efd0     0x3394
                0x000000000801efd0                . = ALIGN (0x4)
 *(.rodata)
 .rodata        0x000000000801efd0       0x48 /tmp/loko_app.yhd4Rs.ltrans0.ltrans.o
 .rodata        0x000000000801f018      0x125 /tmp/loko_app.yhd4Rs.ltrans1.ltrans.o
 *(.rodata*)
 .rodata._get_unique_id.str1.1
                0x000000000801f13d       0x11 /tmp/loko_app.yhd4Rs.ltrans0.ltrans.o
 .rodata._prepare_to_sleep.str1.1
                0x000000000801f14e       0x3c /tmp/loko_app.yhd4Rs.ltrans0.ltrans.o
 .rodata._cmd_print.str1.1
                0x000000000801f18a      0x147 /tmp/loko_app.yhd4Rs.ltrans0.ltrans.o
 .rodata._cmd_gtrace_print.str1.1
                0x000000000801f2d1       0x4f /tmp/loko_app.yhd4Rs.ltrans0.ltrans.o
 .rodata._cmd_help.str1.1
                0x000000000801f320       0x14 /tmp/loko_app.yhd4Rs.ltrans0.ltrans.o
                                         0x1c (size before relaxing)
 .rodata._uart_data_proccess.str1.1
                0x000000000801f334       0x11 /tmp/loko_app.yhd4Rs.ltrans0.ltrans.o
 .rodata._cmd_set_dev_eui.str1.1
                0x000000000801f345       0x19 /tmp/loko_app.yhd4Rs.ltrans0.ltrans.o
 .rodata._cmd_set_app_eui.str1.1
                0x000000000801f35e       0x19 /tmp/loko_app.yhd4Rs.ltrans0.ltrans.o
 .rodata._cmd_set_app_key.str1.1
                0x000000000801f377       0x19 /tmp/loko_app.yhd4Rs.ltrans0.ltrans.o
 .rodata.log_it.str1.1
                0x000000000801f390       0x40 /tmp/loko_app.yhd4Rs.ltrans0.ltrans.o
 .rodata._get_battery_level.str1.1
                0x000000000801f3d0       0x2e /tmp/loko_app.yhd4Rs.ltrans0.ltrans.o
 .rodata.OnRadioTxDone.str1.1
                0x000000000801f3fe       0x22 /tmp/loko_app.yhd4Rs.ltrans0.ltrans.o
 .rodata.OnRadioRxDone.str1.1
                0x000000000801f420       0x22 /tmp/loko_app.yhd4Rs.ltrans0.ltrans.o
 .rodata.OnRadioTxTimeout.str1.1
                0x000000000801f442       0x25 /tmp/loko_app.yhd4Rs.ltrans0.ltrans.o
 .rodata.OnRadioRxTimeout.str1.1
                0x000000000801f467       0x25 /tmp/loko_app.yhd4Rs.ltrans0.ltrans.o
 .rodata._on_rx_data.str1.1
                0x000000000801f48c       0x90 /tmp/loko_app.yhd4Rs.ltrans0.ltrans.o
 .rodata._on_tx_data.str1.1
                0x000000000801f51c       0xbb /tmp/loko_app.yhd4Rs.ltrans0.ltrans.o
                                         0xbf (size before relaxing)
 .rodata._on_restore_context_request.str1.1
                0x000000000801f5d7       0x13 /tmp/loko_app.yhd4Rs.ltrans0.ltrans.o
 .rodata._on_store_context_request.str1.1
                0x000000000801f5ea       0x31 /tmp/loko_app.yhd4Rs.ltrans0.ltrans.o
 .rodata._on_mac_process_notify.str1.1
                0x000000000801f61b       0x19 /tmp/loko_app.yhd4Rs.ltrans0.ltrans.o
 .rodata.TIMER_IF_StartTimer.str1.1
                0x000000000801f634       0x21 /tmp/loko_app.yhd4Rs.ltrans0.ltrans.o
 .rodata._switch_mode.str1.1
                0x000000000801f655       0x21 /tmp/loko_app.yhd4Rs.ltrans0.ltrans.o
 .rodata._shutdown.str1.1
                0x000000000801f676       0xe9 /tmp/loko_app.yhd4Rs.ltrans0.ltrans.o
 .rodata._gtrace_load.str1.1
                0x000000000801f75f       0xc2 /tmp/loko_app.yhd4Rs.ltrans0.ltrans.o
 .rodata._on_rx_done.str1.1
                0x000000000801f821       0x2a /tmp/loko_app.yhd4Rs.ltrans0.ltrans.o
 .rodata._cmd_set_id_1.str1.1
                0x000000000801f84b       0x28 /tmp/loko_app.yhd4Rs.ltrans0.ltrans.o
 .rodata._cmd_set_id_2.str1.1
                0x000000000801f873       0x28 /tmp/loko_app.yhd4Rs.ltrans0.ltrans.o
 .rodata._cmd_set_frequency.str1.1
                0x000000000801f89b       0x35 /tmp/loko_app.yhd4Rs.ltrans0.ltrans.o
 .rodata._cmd_set_auto_wakeup_interval.str1.1
                0x000000000801f8d0       0x38 /tmp/loko_app.yhd4Rs.ltrans0.ltrans.o
 .rodata._cmd_erase.str1.1
                0x000000000801f908       0x3d /tmp/loko_app.yhd4Rs.ltrans0.ltrans.o
 .rodata._cmd_gtrace_period.str1.1
                0x000000000801f945       0x38 /tmp/loko_app.yhd4Rs.ltrans0.ltrans.o
 .rodata._cmd_enable_lorawan.str1.1
                0x000000000801f97d       0x2b /tmp/loko_app.yhd4Rs.ltrans0.ltrans.o
 .rodata._cmd_enable_p2p_enc.str1.1
                0x000000000801f9a8       0x2c /tmp/loko_app.yhd4Rs.ltrans0.ltrans.o
 .rodata._cmd_set_region.str1.1
                0x000000000801f9d4       0x42 /tmp/loko_app.yhd4Rs.ltrans0.ltrans.o
                                         0x47 (size before relaxing)
 .rodata._cmd_set_debug_output.str1.1
                0x000000000801fa16       0x29 /tmp/loko_app.yhd4Rs.ltrans0.ltrans.o
 .rodata._cmd_set_extended_packet.str1.1
                0x000000000801fa3f       0x2e /tmp/loko_app.yhd4Rs.ltrans0.ltrans.o
 .rodata._cmd_set_gnss_mode.str1.1
                0x000000000801fa6d       0x25 /tmp/loko_app.yhd4Rs.ltrans0.ltrans.o
 .rodata._cmd_set_tx_power.str1.1
                0x000000000801fa92       0x24 /tmp/loko_app.yhd4Rs.ltrans0.ltrans.o
 .rodata.PrintKey.str1.1
                0x000000000801fab6      0x163 /tmp/loko_app.yhd4Rs.ltrans0.ltrans.o
 .rodata.lorawan_init.str1.1
                0x000000000801fc19      0x1c1 /tmp/loko_app.yhd4Rs.ltrans0.ltrans.o
 .rodata._on_join_request.str1.1
                0x000000000801fdda       0x92 /tmp/loko_app.yhd4Rs.ltrans0.ltrans.o
 .rodata._background_loop.str1.1
                0x000000000801fe6c       0x78 /tmp/loko_app.yhd4Rs.ltrans0.ltrans.o
 .rodata.main.str1.1
                0x000000000801fee4      0x9e0 /tmp/loko_app.yhd4Rs.ltrans0.ltrans.o
 .rodata.str1.1
                0x00000000080208c4      0x680 /tmp/loko_app.yhd4Rs.ltrans0.ltrans.o
                                        0x69b (size before relaxing)
 .rodata.AHBPrescTable
                0x0000000008020f44       0x40 /tmp/loko_app.yhd4Rs.ltrans0.ltrans.o
                0x0000000008020f44                AHBPrescTable
 .rodata.APBPrescTable
                0x0000000008020f84       0x20 /tmp/loko_app.yhd4Rs.ltrans0.ltrans.o
 .rodata.BandwidthsAS923.lto_priv.0
                0x0000000008020fa4       0x20 /tmp/loko_app.yhd4Rs.ltrans0.ltrans.o
                0x0000000008020fa4                BandwidthsCN779.lto_priv.0
                0x0000000008020fa4                BandwidthsEU433.lto_priv.0
                0x0000000008020fa4                BandwidthsEU868.lto_priv.0
                0x0000000008020fa4                BandwidthsRU864.lto_priv.0
                0x0000000008020fa4                BandwidthsAS923.lto_priv.0
                0x0000000008020fa4                BandwidthsIN865.lto_priv.0
 .rodata.BandwidthsAU915.lto_priv.0
                0x0000000008020fc4       0x40 /tmp/loko_app.yhd4Rs.ltrans0.ltrans.o
                0x0000000008020fc4                BandwidthsAU915.lto_priv.0
 .rodata.BandwidthsCN470.lto_priv.0
                0x0000000008021004       0x20 /tmp/loko_app.yhd4Rs.ltrans0.ltrans.o
                0x0000000008021004                BandwidthsCN470.lto_priv.0
 .rodata.BandwidthsKR920.lto_priv.0
                0x0000000008021024       0x18 /tmp/loko_app.yhd4Rs.ltrans0.ltrans.o
                0x0000000008021024                BandwidthsKR920.lto_priv.0
 .rodata.BandwidthsUS915.lto_priv.0
                0x000000000802103c       0x40 /tmp/loko_app.yhd4Rs.ltrans0.ltrans.o
                0x000000000802103c                BandwidthsUS915.lto_priv.0
 .rodata.DEBUG_START_INFO_STR
                0x000000000802107c       0x14 /tmp/loko_app.yhd4Rs.ltrans0.ltrans.o
 .rodata.DatarateOffsetsAU915
                0x0000000008021090       0x2a /tmp/loko_app.yhd4Rs.ltrans0.ltrans.o
 .rodata.DatarateOffsetsCN470
                0x00000000080210ba       0x30 /tmp/loko_app.yhd4Rs.ltrans0.ltrans.o
 .rodata.DatarateOffsetsUS915
                0x00000000080210ea       0x14 /tmp/loko_app.yhd4Rs.ltrans0.ltrans.o
 .rodata.DataratesAS923.lto_priv.0
                0x00000000080210fe        0x8 /tmp/loko_app.yhd4Rs.ltrans0.ltrans.o
                0x00000000080210fe                DataratesCN779.lto_priv.0
                0x00000000080210fe                DataratesEU433.lto_priv.0
                0x00000000080210fe                DataratesRU864.lto_priv.0
                0x00000000080210fe                DataratesAS923.lto_priv.0
                0x00000000080210fe                DataratesCN470.lto_priv.0
                0x00000000080210fe                DataratesIN865.lto_priv.0
                0x00000000080210fe                DataratesEU868.lto_priv.0
 .rodata.DataratesAU915.lto_priv.0
                0x0000000008021106       0x10 /tmp/loko_app.yhd4Rs.ltrans0.ltrans.o
                0x0000000008021106                DataratesAU915.lto_priv.0
 .rodata.DataratesKR920.lto_priv.0
                0x0000000008021116        0x6 /tmp/loko_app.yhd4Rs.ltrans0.ltrans.o
                0x0000000008021116                DataratesKR920.lto_priv.0
 .rodata.DataratesUS915.lto_priv.0
                0x000000000802111c       0x10 /tmp/loko_app.yhd4Rs.ltrans0.ltrans.o
                0x000000000802111c                DataratesUS915.lto_priv.0
 .rodata.ERROR_MODE
                0x000000000802112c       0x11 /tmp/loko_app.yhd4Rs.ltrans0.ltrans.o
 .rodata.EffectiveRx1DrOffsetDownlinkDwell0AS923
                0x000000000802113d       0x40 /tmp/loko_app.yhd4Rs.ltrans0.ltrans.o
 .rodata.EffectiveRx1DrOffsetDownlinkDwell1AS923
                0x000000000802117d       0x40 /tmp/loko_app.yhd4Rs.ltrans0.ltrans.o
 .rodata.EffectiveRx1DrOffsetIN865
                0x00000000080211bd       0x40 /tmp/loko_app.yhd4Rs.ltrans0.ltrans.o
 *fill*         0x00000000080211fd        0x3 
 .rodata.LOG_IO_INTERFACE
                0x0000000008021200        0x8 /tmp/loko_app.yhd4Rs.ltrans0.ltrans.o
 .rodata.MODES.5
                0x0000000008021208       0x14 /tmp/loko_app.yhd4Rs.ltrans0.ltrans.o
 .rodata.MODE_LIST.4
                0x000000000802121c       0x18 /tmp/loko_app.yhd4Rs.ltrans0.ltrans.o
 .rodata.OK     0x0000000008021234        0x5 /tmp/loko_app.yhd4Rs.ltrans0.ltrans.o
 *fill*         0x0000000008021239        0x3 
 .rodata.REGIONS
                0x000000000802123c       0x50 /tmp/loko_app.yhd4Rs.ltrans0.ltrans.o
 .rodata.SETTINGS_IO
                0x000000000802128c       0x18 /tmp/loko_app.yhd4Rs.ltrans0.ltrans.o
 .rodata.TS_TEMPLATE.0
                0x00000000080212a4       0x16 /tmp/loko_app.yhd4Rs.ltrans0.ltrans.o
 .rodata.UNKNOWN_COMMAND
                0x00000000080212ba       0x16 /tmp/loko_app.yhd4Rs.ltrans0.ltrans.o
 .rodata.WRONG_ARGUMENT
                0x00000000080212d0       0x15 /tmp/loko_app.yhd4Rs.ltrans0.ltrans.o
 .rodata.__FUNCTION__.0
                0x00000000080212e5        0xf /tmp/loko_app.yhd4Rs.ltrans0.ltrans.o
 .rodata.__FUNCTION__.1
                0x00000000080212f4        0xc /tmp/loko_app.yhd4Rs.ltrans0.ltrans.o
 .rodata.__FUNCTION__.2
                0x0000000008021300        0xf /tmp/loko_app.yhd4Rs.ltrans0.ltrans.o
 .rodata.__FUNCTION__.3
                0x000000000802130f        0xd /tmp/loko_app.yhd4Rs.ltrans0.ltrans.o
 .rodata._cmd_list
                0x000000000802131c      0x108 /tmp/loko_app.yhd4Rs.ltrans0.ltrans.o
 .rodata._default
                0x0000000008021424       0x5b /tmp/loko_app.yhd4Rs.ltrans0.ltrans.o
 *fill*         0x000000000802147f        0x1 
 .rodata._slot_strings.0
                0x0000000008021480       0x18 /tmp/loko_app.yhd4Rs.ltrans0.ltrans.o
 .rodata.gfm2_sbox
                0x0000000008021498      0x100 /tmp/loko_app.yhd4Rs.ltrans0.ltrans.o
 .rodata.gfm3_sbox
                0x0000000008021598      0x100 /tmp/loko_app.yhd4Rs.ltrans0.ltrans.o
 .rodata.sbox.lto_priv.0
                0x0000000008021698      0x100 /tmp/loko_app.yhd4Rs.ltrans0.ltrans.o
                0x0000000008021698                sbox.lto_priv.0
 .rodata.snprintf_error.lto_priv.0
                0x0000000008021798       0x1e /tmp/loko_app.yhd4Rs.ltrans0.ltrans.o
                0x0000000008021798                snprintf_error.lto_priv.0
 .rodata.RegionCommonRxConfigPrint.str1.1
                0x00000000080217b6       0x65 /tmp/loko_app.yhd4Rs.ltrans1.ltrans.o
 .rodata.RegionCommonTxConfigPrint.str1.1
                0x000000000802181b       0x31 /tmp/loko_app.yhd4Rs.ltrans1.ltrans.o
 .rodata.settings_save.str1.1
                0x000000000802184c       0xaa /tmp/loko_app.yhd4Rs.ltrans1.ltrans.o
 .rodata.bsp_fatal_error.str1.1
                0x00000000080218f6       0x39 /tmp/loko_app.yhd4Rs.ltrans1.ltrans.o
                                         0x3a (size before relaxing)
 .rodata.bsp_clock_switch.str1.1
                0x000000000802192f       0x3c /tmp/loko_app.yhd4Rs.ltrans1.ltrans.o
 .rodata._flash_write.lto_priv.0.str1.1
                0x000000000802192f       0x33 /tmp/loko_app.yhd4Rs.ltrans1.ltrans.o
 .rodata.bsp_flash_gnss_trace_erase.str1.1
                0x0000000008021962       0x1b /tmp/loko_app.yhd4Rs.ltrans1.ltrans.o
 .rodata.bsp_battery_measure.str1.1
                0x000000000802197d       0x51 /tmp/loko_app.yhd4Rs.ltrans1.ltrans.o
 .rodata.bsp_get_start_reason.str1.1
                0x00000000080219ce       0x43 /tmp/loko_app.yhd4Rs.ltrans1.ltrans.o
 .rodata.RadioIrqProcess.lto_priv.0.str1.1
                0x0000000008021a11       0xc7 /tmp/loko_app.yhd4Rs.ltrans1.ltrans.o
 .rodata.RadioInit.lto_priv.0.str1.1
                0x0000000008021ad8       0x3c /tmp/loko_app.yhd4Rs.ltrans1.ltrans.o
 .rodata.NMI_Handler.str1.1
                0x0000000008021ad8       0x4e /tmp/loko_app.yhd4Rs.ltrans1.ltrans.o
 .rodata.HardFault_Handler.str1.1
                0x0000000008021b26       0x12 /tmp/loko_app.yhd4Rs.ltrans1.ltrans.o
 .rodata.MemManage_Handler.str1.1
                0x0000000008021b38       0x12 /tmp/loko_app.yhd4Rs.ltrans1.ltrans.o
 .rodata.BusFault_Handler.str1.1
                0x0000000008021b4a       0x11 /tmp/loko_app.yhd4Rs.ltrans1.ltrans.o
 .rodata.UsageFault_Handler.str1.1
                0x0000000008021b5b       0x13 /tmp/loko_app.yhd4Rs.ltrans1.ltrans.o
 .rodata.USART1_IRQHandler.str1.1
                0x0000000008021b6e       0x1f /tmp/loko_app.yhd4Rs.ltrans1.ltrans.o
 .rodata.LPUART1_IRQHandler.str1.1
                0x0000000008021b8d       0x1e /tmp/loko_app.yhd4Rs.ltrans1.ltrans.o
 .rodata.str1.1
                0x0000000008021bab       0x10 /tmp/loko_app.yhd4Rs.ltrans1.ltrans.o
                                         0x18 (size before relaxing)
 .rodata.Bandwidths
                0x0000000008021bbb        0x3 /tmp/loko_app.yhd4Rs.ltrans1.ltrans.o
 *fill*         0x0000000008021bbe        0x2 
 .rodata.CLOCK_LIST
                0x0000000008021bc0       0x6c /tmp/loko_app.yhd4Rs.ltrans1.ltrans.o
 .rodata.CSWTCH.55
                0x0000000008021c2c       0x2c /tmp/loko_app.yhd4Rs.ltrans1.ltrans.o
 .rodata.CSWTCH.73
                0x0000000008021c58        0x4 /tmp/loko_app.yhd4Rs.ltrans1.ltrans.o
 .rodata.EventRXSlotStrings
                0x0000000008021c5c       0x18 /tmp/loko_app.yhd4Rs.ltrans1.ltrans.o
 .rodata.FskBandwidths
                0x0000000008021c74       0xb0 /tmp/loko_app.yhd4Rs.ltrans1.ltrans.o
 .rodata.MSIRangeTable
                0x0000000008021d24       0x40 /tmp/loko_app.yhd4Rs.ltrans1.ltrans.o
 .rodata.MaxPayloadOfDatarateCN470.lto_priv.0
                0x0000000008021d64        0x8 /tmp/loko_app.yhd4Rs.ltrans1.ltrans.o
                0x0000000008021d64                MaxPayloadOfDatarateCN470.lto_priv.0
 .rodata.MaxPayloadOfDatarateCN779.lto_priv.0
                0x0000000008021d6c        0x8 /tmp/loko_app.yhd4Rs.ltrans1.ltrans.o
                0x0000000008021d6c                MaxPayloadOfDatarateCN779.lto_priv.0
                0x0000000008021d6c                MaxPayloadOfDatarateEU433.lto_priv.0
                0x0000000008021d6c                MaxPayloadOfDatarateRU864.lto_priv.0
                0x0000000008021d6c                MaxPayloadOfDatarateEU868.lto_priv.0
                0x0000000008021d6c                MaxPayloadOfDatarateIN865.lto_priv.0
 .rodata.MaxPayloadOfDatarateDwell0AS923.lto_priv.0
                0x0000000008021d74        0x8 /tmp/loko_app.yhd4Rs.ltrans1.ltrans.o
                0x0000000008021d74                MaxPayloadOfDatarateDwell0AS923.lto_priv.0
 .rodata.MaxPayloadOfDatarateDwell0AU915.lto_priv.0
                0x0000000008021d7c        0xe /tmp/loko_app.yhd4Rs.ltrans1.ltrans.o
                0x0000000008021d7c                MaxPayloadOfDatarateDwell0AU915.lto_priv.0
 .rodata.MaxPayloadOfDatarateDwell1AS923
                0x0000000008021d8a        0x8 /tmp/loko_app.yhd4Rs.ltrans1.ltrans.o
 .rodata.MaxPayloadOfDatarateDwell1AU915
                0x0000000008021d92        0xe /tmp/loko_app.yhd4Rs.ltrans1.ltrans.o
 .rodata.MaxPayloadOfDatarateKR920.lto_priv.0
                0x0000000008021da0        0x6 /tmp/loko_app.yhd4Rs.ltrans1.ltrans.o
                0x0000000008021da0                MaxPayloadOfDatarateKR920.lto_priv.0
 .rodata.MaxPayloadOfDatarateRepeaterCN470.lto_priv.0
                0x0000000008021da6        0x8 /tmp/loko_app.yhd4Rs.ltrans1.ltrans.o
                0x0000000008021da6                MaxPayloadOfDatarateRepeaterCN470.lto_priv.0
 .rodata.MaxPayloadOfDatarateRepeaterCN779.lto_priv.0
                0x0000000008021dae        0x8 /tmp/loko_app.yhd4Rs.ltrans1.ltrans.o
                0x0000000008021dae                MaxPayloadOfDatarateRepeaterEU433.lto_priv.0
                0x0000000008021dae                MaxPayloadOfDatarateRepeaterEU868.lto_priv.0
                0x0000000008021dae                MaxPayloadOfDatarateRepeaterRU864.lto_priv.0
                0x0000000008021dae                MaxPayloadOfDatarateRepeaterCN779.lto_priv.0
                0x0000000008021dae                MaxPayloadOfDatarateRepeaterIN865.lto_priv.0
 .rodata.MaxPayloadOfDatarateRepeaterDwell0AS923.lto_priv.0
                0x0000000008021db6        0x8 /tmp/loko_app.yhd4Rs.ltrans1.ltrans.o
                0x0000000008021db6                MaxPayloadOfDatarateRepeaterDwell0AS923.lto_priv.0
 .rodata.MaxPayloadOfDatarateRepeaterDwell0AU915.lto_priv.0
                0x0000000008021dbe        0xe /tmp/loko_app.yhd4Rs.ltrans1.ltrans.o
                0x0000000008021dbe                MaxPayloadOfDatarateRepeaterDwell0AU915.lto_priv.0
 .rodata.MaxPayloadOfDatarateRepeaterDwell1AU915
                0x0000000008021dcc        0xe /tmp/loko_app.yhd4Rs.ltrans1.ltrans.o
 .rodata.MaxPayloadOfDatarateRepeaterKR920.lto_priv.0
                0x0000000008021dda        0x6 /tmp/loko_app.yhd4Rs.ltrans1.ltrans.o
                0x0000000008021dda                MaxPayloadOfDatarateRepeaterKR920.lto_priv.0
 .rodata.MaxPayloadOfDatarateRepeaterUS915.lto_priv.0
                0x0000000008021de0       0x10 /tmp/loko_app.yhd4Rs.ltrans1.ltrans.o
                0x0000000008021de0                MaxPayloadOfDatarateRepeaterUS915.lto_priv.0
 .rodata.MaxPayloadOfDatarateUS915.lto_priv.0
                0x0000000008021df0       0x10 /tmp/loko_app.yhd4Rs.ltrans1.ltrans.o
                0x0000000008021df0                MaxPayloadOfDatarateUS915.lto_priv.0
 .rodata.prv_parse_term.constprop.0.isra.0.str1.1
                0x0000000008021e00       0x38 /tmp/loko_app.yhd4Rs.ltrans2.ltrans.o
 .rodata.log_array.constprop.0.str1.1
                0x0000000008021e38        0xe /tmp/loko_app.yhd4Rs.ltrans2.ltrans.o
                                         0x11 (size before relaxing)
 .rodata.CSWTCH.21
                0x0000000008021e46       0x12 /tmp/loko_app.yhd4Rs.ltrans2.ltrans.o
 .rodata.CSWTCH.83.lto_priv.0
                0x0000000008021e58        0x7 /tmp/loko_app.yhd4Rs.ltrans2.ltrans.o
 .rodata.LoRaMacMaxEirpTable
                0x0000000008021e5f       0x10 /tmp/loko_app.yhd4Rs.ltrans2.ltrans.o
 .rodata.__assert_func.str1.1
                0x0000000008021e6f       0x3c /usr/gcc-arm-none-eabi-10.3-2021.07/bin/../lib/gcc/arm-none-eabi/10.3.1/../../../../arm-none-eabi/lib/thumb/v7e-m/nofp/libg_nano.a(lib_a-assert.o)
                                         0x3d (size before relaxing)
 .rodata._ctype_
                0x0000000008021eab      0x101 /usr/gcc-arm-none-eabi-10.3-2021.07/bin/../lib/gcc/arm-none-eabi/10.3.1/../../../../arm-none-eabi/lib/thumb/v7e-m/nofp/libg_nano.a(lib_a-ctype_.o)
                0x0000000008021eab                _ctype_
 .rodata._global_impure_ptr
                0x0000000008021fac        0x4 /usr/gcc-arm-none-eabi-10.3-2021.07/bin/../lib/gcc/arm-none-eabi/10.3.1/../../../../arm-none-eabi/lib/thumb/v7e-m/nofp/libg_nano.a(lib_a-impure.o)
                0x0000000008021fac                _global_impure_ptr
 .rodata._vfprintf_r.str1.1
                0x0000000008021fb0       0x11 /usr/gcc-arm-none-eabi-10.3-2021.07/bin/../lib/gcc/arm-none-eabi/10.3.1/../../../../arm-none-eabi/lib/thumb/v7e-m/nofp/libg_nano.a(lib_a-nano-vfprintf.o)
 .rodata._printf_float.str1.1
                0x0000000008021fc1       0x10 /usr/gcc-arm-none-eabi-10.3-2021.07/bin/../lib/gcc/arm-none-eabi/10.3.1/../../../../arm-none-eabi/lib/thumb/v7e-m/nofp/libg_nano.a(lib_a-nano-vfprintf_float.o)
                                         0x12 (size before relaxing)
 .rodata._printf_i.str1.1
                0x0000000008021fd1       0x11 /usr/gcc-arm-none-eabi-10.3-2021.07/bin/../lib/gcc/arm-none-eabi/10.3.1/../../../../arm-none-eabi/lib/thumb/v7e-m/nofp/libg_nano.a(lib_a-nano-vfprintf_i.o)
                                         0x22 (size before relaxing)
 .rodata._strtod_l.str1.1
                0x0000000008021fe2       0x11 /usr/gcc-arm-none-eabi-10.3-2021.07/bin/../lib/gcc/arm-none-eabi/10.3.1/../../../../arm-none-eabi/lib/thumb/v7e-m/nofp/libg_nano.a(lib_a-strtod.o)
                                          0xd (size before relaxing)
 *fill*         0x0000000008021fe2        0x2 
 .rodata.fpi.1  0x0000000008021fe4       0x14 /usr/gcc-arm-none-eabi-10.3-2021.07/bin/../lib/gcc/arm-none-eabi/10.3.1/../../../../arm-none-eabi/lib/thumb/v7e-m/nofp/libg_nano.a(lib_a-strtod.o)
 .rodata.fpinan.0
                0x0000000008021ff8       0x14 /usr/gcc-arm-none-eabi-10.3-2021.07/bin/../lib/gcc/arm-none-eabi/10.3.1/../../../../arm-none-eabi/lib/thumb/v7e-m/nofp/libg_nano.a(lib_a-strtod.o)
 *fill*         0x000000000802200c        0x4 
 .rodata.tinytens
                0x0000000008022010       0x28 /usr/gcc-arm-none-eabi-10.3-2021.07/bin/../lib/gcc/arm-none-eabi/10.3.1/../../../../arm-none-eabi/lib/thumb/v7e-m/nofp/libg_nano.a(lib_a-strtod.o)
 .rodata._dtoa_r.str1.1
                0x0000000008022038       0xb3 /usr/gcc-arm-none-eabi-10.3-2021.07/bin/../lib/gcc/arm-none-eabi/10.3.1/../../../../arm-none-eabi/lib/thumb/v7e-m/nofp/libg_nano.a(lib_a-dtoa.o)
                                         0xb5 (size before relaxing)
 *fill*         0x00000000080220eb        0x1 
 .rodata.__sf_fake_stderr
                0x00000000080220ec       0x20 /usr/gcc-arm-none-eabi-10.3-2021.07/bin/../lib/gcc/arm-none-eabi/10.3.1/../../../../arm-none-eabi/lib/thumb/v7e-m/nofp/libg_nano.a(lib_a-findfp.o)
                0x00000000080220ec                __sf_fake_stderr
 .rodata.__sf_fake_stdin
                0x000000000802210c       0x20 /usr/gcc-arm-none-eabi-10.3-2021.07/bin/../lib/gcc/arm-none-eabi/10.3.1/../../../../arm-none-eabi/lib/thumb/v7e-m/nofp/libg_nano.a(lib_a-findfp.o)
                0x000000000802210c                __sf_fake_stdin
 .rodata.__sf_fake_stdout
                0x000000000802212c       0x20 /usr/gcc-arm-none-eabi-10.3-2021.07/bin/../lib/gcc/arm-none-eabi/10.3.1/../../../../arm-none-eabi/lib/thumb/v7e-m/nofp/libg_nano.a(lib_a-findfp.o)
                0x000000000802212c                __sf_fake_stdout
 .rodata.__gethex.str1.1
                0x000000000802214c       0x86 /usr/gcc-arm-none-eabi-10.3-2021.07/bin/../lib/gcc/arm-none-eabi/10.3.1/../../../../arm-none-eabi/lib/thumb/v7e-m/nofp/libg_nano.a(lib_a-gdtoa-gethex.o)
                                         0x97 (size before relaxing)
 .rodata.str1.1
                0x00000000080221d2       0x86 /usr/gcc-arm-none-eabi-10.3-2021.07/bin/../lib/gcc/arm-none-eabi/10.3.1/../../../../arm-none-eabi/lib/thumb/v7e-m/nofp/libg_nano.a(lib_a-lnumeric.o)
                                          0x3 (size before relaxing)
 *fill*         0x00000000080221d2        0x2 
 .rodata._C_numeric_locale
                0x00000000080221d4        0xc /usr/gcc-arm-none-eabi-10.3-2021.07/bin/../lib/gcc/arm-none-eabi/10.3.1/../../../../arm-none-eabi/lib/thumb/v7e-m/nofp/libg_nano.a(lib_a-lnumeric.o)
                0x00000000080221d4                _C_numeric_locale
 .rodata._setlocale_r.str1.1
                0x00000000080221e0        0x6 /usr/gcc-arm-none-eabi-10.3-2021.07/bin/../lib/gcc/arm-none-eabi/10.3.1/../../../../arm-none-eabi/lib/thumb/v7e-m/nofp/libg_nano.a(lib_a-locale.o)
                                          0x9 (size before relaxing)
 .rodata.str1.1
                0x00000000080221e6        0x2 /usr/gcc-arm-none-eabi-10.3-2021.07/bin/../lib/gcc/arm-none-eabi/10.3.1/../../../../arm-none-eabi/lib/thumb/v7e-m/nofp/libg_nano.a(lib_a-locale.o)
 .rodata._Balloc.str1.1
                0x00000000080221e6       0x7f /usr/gcc-arm-none-eabi-10.3-2021.07/bin/../lib/gcc/arm-none-eabi/10.3.1/../../../../arm-none-eabi/lib/thumb/v7e-m/nofp/libg_nano.a(lib_a-mprec.o)
                                         0x96 (size before relaxing)
 .rodata.__multadd.str1.1
                0x0000000008022265       0x11 /usr/gcc-arm-none-eabi-10.3-2021.07/bin/../lib/gcc/arm-none-eabi/10.3.1/../../../../arm-none-eabi/lib/thumb/v7e-m/nofp/libg_nano.a(lib_a-mprec.o)
 *fill*         0x0000000008022265        0x3 
 .rodata.__mprec_bigtens
                0x0000000008022268       0x28 /usr/gcc-arm-none-eabi-10.3-2021.07/bin/../lib/gcc/arm-none-eabi/10.3.1/../../../../arm-none-eabi/lib/thumb/v7e-m/nofp/libg_nano.a(lib_a-mprec.o)
                0x0000000008022268                __mprec_bigtens
 .rodata.__mprec_tens
                0x0000000008022290       0xc8 /usr/gcc-arm-none-eabi-10.3-2021.07/bin/../lib/gcc/arm-none-eabi/10.3.1/../../../../arm-none-eabi/lib/thumb/v7e-m/nofp/libg_nano.a(lib_a-mprec.o)
                0x0000000008022290                __mprec_tens
 .rodata.p05.0  0x0000000008022358        0xc /usr/gcc-arm-none-eabi-10.3-2021.07/bin/../lib/gcc/arm-none-eabi/10.3.1/../../../../arm-none-eabi/lib/thumb/v7e-m/nofp/libg_nano.a(lib_a-mprec.o)
 .rodata._svfprintf_r.str1.1
                0x0000000008022364       0x11 /usr/gcc-arm-none-eabi-10.3-2021.07/bin/../lib/gcc/arm-none-eabi/10.3.1/../../../../arm-none-eabi/lib/thumb/v7e-m/nofp/libg_nano.a(lib_a-nano-svfprintf.o)
                0x0000000008022378                . = ALIGN (0x4)

.USER_embedded_Keys
                0x0000000008022364       0xc0
 .USER_embedded_Keys
                0x0000000008022364       0xc0 /tmp/loko_app.yhd4Rs.ltrans0.ltrans.o

.ARM.extab      0x0000000008022424        0x0
                0x0000000008022424                . = ALIGN (0x4)
 *(.ARM.extab* .gnu.linkonce.armextab.*)
                0x0000000008022424                . = ALIGN (0x4)

.ARM            0x0000000008022424        0x8
                0x0000000008022424                . = ALIGN (0x4)
                0x0000000008022424                __exidx_start = .
 *(.ARM.exidx*)
 .ARM.exidx     0x0000000008022424        0x8 /usr/gcc-arm-none-eabi-10.3-2021.07/bin/../lib/gcc/arm-none-eabi/10.3.1/thumb/v7e-m/nofp/libgcc.a(_udivmoddi4.o)
                0x000000000802242c                __exidx_end = .
                0x000000000802242c                . = ALIGN (0x4)

.preinit_array  0x000000000802242c        0x0
                0x000000000802242c                . = ALIGN (0x4)
                0x000000000802242c                PROVIDE (__preinit_array_start = .)
 *(.preinit_array*)
                0x000000000802242c                PROVIDE (__preinit_array_end = .)
                0x000000000802242c                . = ALIGN (0x4)

.init_array     0x000000000802242c        0x4
                0x000000000802242c                . = ALIGN (0x4)
                0x000000000802242c                PROVIDE (__init_array_start = .)
 *(SORT_BY_NAME(.init_array.*))
 *(.init_array*)
 .init_array    0x000000000802242c        0x4 /usr/gcc-arm-none-eabi-10.3-2021.07/bin/../lib/gcc/arm-none-eabi/10.3.1/thumb/v7e-m/nofp/crtbegin.o
                0x0000000008022430                PROVIDE (__init_array_end = .)
                0x0000000008022430                . = ALIGN (0x4)

.fini_array     0x0000000008022430        0x4
                0x0000000008022430                . = ALIGN (0x4)
                [!provide]                        PROVIDE (__fini_array_start = .)
 *(SORT_BY_NAME(.fini_array.*))
 *(.fini_array*)
 .fini_array    0x0000000008022430        0x4 /usr/gcc-arm-none-eabi-10.3-2021.07/bin/../lib/gcc/arm-none-eabi/10.3.1/thumb/v7e-m/nofp/crtbegin.o
                [!provide]                        PROVIDE (__fini_array_end = .)
                0x0000000008022434                . = ALIGN (0x4)
                0x0000000008022434                _sidata = LOADADDR (.data)

.data           0x0000000020000000      0x450 load address 0x0000000008022434
                0x0000000020000000                . = ALIGN (0x4)
                0x0000000020000000                _sdata = .
 *(.data)
 *(.data*)
 .data.CommissioningParams
                0x0000000020000000       0x18 /tmp/loko_app.yhd4Rs.ltrans0.ltrans.o
 .data.CommonJoinChannels
                0x0000000020000018       0xf0 /tmp/loko_app.yhd4Rs.ltrans0.ltrans.o
                0x0000000020000018                CommonJoinChannels
 .data.CompliancePackage
                0x0000000020000108       0x38 /tmp/loko_app.yhd4Rs.ltrans0.ltrans.o
 .data.JoinParams
                0x0000000020000140        0x8 /tmp/loko_app.yhd4Rs.ltrans0.ltrans.o
 .data.KeyAddrList
                0x0000000020000148        0x8 /tmp/loko_app.yhd4Rs.ltrans0.ltrans.o
 .data.RxParams
                0x0000000020000150       0x14 /tmp/loko_app.yhd4Rs.ltrans0.ltrans.o
 .data.SystemCoreClock
                0x0000000020000164        0x4 /tmp/loko_app.yhd4Rs.ltrans0.ltrans.o
                0x0000000020000164                SystemCoreClock
 .data.TxParams
                0x0000000020000168       0x1c /tmp/loko_app.yhd4Rs.ltrans0.ltrans.o
 .data._app_data
                0x0000000020000184        0x8 /tmp/loko_app.yhd4Rs.ltrans0.ltrans.o
 .data._battery_voltage.lto_priv.0
                0x000000002000018c        0x4 /tmp/loko_app.yhd4Rs.ltrans0.ltrans.o
                0x000000002000018c                _battery_voltage.lto_priv.0
 .data._lm_handler_callbacks
                0x0000000020000190       0x4c /tmp/loko_app.yhd4Rs.ltrans0.ltrans.o
 .data._lm_handler_params
                0x00000000200001dc       0x14 /tmp/loko_app.yhd4Rs.ltrans0.ltrans.o
 .data._radio_events.4
                0x00000000200001f0       0x1c /tmp/loko_app.yhd4Rs.ltrans0.ltrans.o
 .data.next.lto_priv.0
                0x000000002000020c        0x4 /tmp/loko_app.yhd4Rs.ltrans0.ltrans.o
                0x000000002000020c                next.lto_priv.0
 .data.MaxPayloadLength
                0x0000000020000210        0x1 /tmp/loko_app.yhd4Rs.ltrans1.ltrans.o
 *fill*         0x0000000020000211        0x3 
 .data._adc.lto_priv.0
                0x0000000020000214       0x64 /tmp/loko_app.yhd4Rs.ltrans1.ltrans.o
                0x0000000020000214                _adc.lto_priv.0
 .data._power_on_reason.0
                0x0000000020000278        0x1 /tmp/loko_app.yhd4Rs.ltrans1.ltrans.o
 *fill*         0x0000000020000279        0x3 
 .data._impure_ptr
                0x000000002000027c        0x4 /usr/gcc-arm-none-eabi-10.3-2021.07/bin/../lib/gcc/arm-none-eabi/10.3.1/../../../../arm-none-eabi/lib/thumb/v7e-m/nofp/libg_nano.a(lib_a-impure.o)
                0x000000002000027c                _impure_ptr
 .data.impure_data
                0x0000000020000280       0x60 /usr/gcc-arm-none-eabi-10.3-2021.07/bin/../lib/gcc/arm-none-eabi/10.3.1/../../../../arm-none-eabi/lib/thumb/v7e-m/nofp/libg_nano.a(lib_a-impure.o)
 .data.numempty
                0x00000000200002e0        0x2 /usr/gcc-arm-none-eabi-10.3-2021.07/bin/../lib/gcc/arm-none-eabi/10.3.1/../../../../arm-none-eabi/lib/thumb/v7e-m/nofp/libg_nano.a(lib_a-lnumeric.o)
 *fill*         0x00000000200002e2        0x2 
 .data.__global_locale
                0x00000000200002e4      0x16c /usr/gcc-arm-none-eabi-10.3-2021.07/bin/../lib/gcc/arm-none-eabi/10.3.1/../../../../arm-none-eabi/lib/thumb/v7e-m/nofp/libg_nano.a(lib_a-locale.o)
                0x00000000200002e4                __global_locale
 *(.RamFunc)
 *(.RamFunc*)
                0x0000000020000450                . = ALIGN (0x4)
                0x0000000020000450                _edata = .

.igot.plt       0x0000000020000450        0x0 load address 0x0000000008022884
 .igot.plt      0x0000000020000450        0x0 /usr/gcc-arm-none-eabi-10.3-2021.07/bin/../lib/gcc/arm-none-eabi/10.3.1/thumb/v7e-m/nofp/crtbegin.o

.crc_placeholder
                0x0000000008022884        0x4
                0x0000000008022884                . = ALIGN (0x4)
 *(.crc_placeholder)
 .crc_placeholder
                0x0000000008022884        0x4 /tmp/loko_app.yhd4Rs.ltrans2.ltrans.o
                0x0000000008022888                . = ALIGN (0x4)

.rel.dyn        0x0000000008022888        0x0
 .rel.iplt      0x0000000008022888        0x0 /usr/gcc-arm-none-eabi-10.3-2021.07/bin/../lib/gcc/arm-none-eabi/10.3.1/thumb/v7e-m/nofp/crtbegin.o
                0x0000000008022888                . = ALIGN (0x4)

.bss            0x0000000020000450     0x332c
                0x0000000020000450                _sbss = .
                0x0000000020000450                __bss_start__ = _sbss
 *(.bss)
 .bss           0x0000000020000450       0x1c /usr/gcc-arm-none-eabi-10.3-2021.07/bin/../lib/gcc/arm-none-eabi/10.3.1/thumb/v7e-m/nofp/crtbegin.o
 *(.bss*)
 .bss.AppDataBuffer
                0x000000002000046c       0xf2 /tmp/loko_app.yhd4Rs.ltrans0.ltrans.o
 *fill*         0x000000002000055e        0x2 
 .bss.ChannelPlanCtx.lto_priv.0
                0x0000000020000560       0x24 /tmp/loko_app.yhd4Rs.ltrans0.ltrans.o
                0x0000000020000560                ChannelPlanCtx.lto_priv.0
 .bss.CommandsCtx.lto_priv.0
                0x0000000020000584      0x20c /tmp/loko_app.yhd4Rs.ltrans0.ltrans.o
                0x0000000020000584                CommandsCtx.lto_priv.0
 .bss.ComplianceParams
                0x0000000020000790        0x4 /tmp/loko_app.yhd4Rs.ltrans0.ltrans.o
 .bss.ComplianceTestState
                0x0000000020000794       0x38 /tmp/loko_app.yhd4Rs.ltrans0.ltrans.o
 .bss.ConfirmQueueCtx.lto_priv.0
                0x00000000200007cc       0x24 /tmp/loko_app.yhd4Rs.ltrans0.ltrans.o
                0x00000000200007cc                ConfirmQueueCtx.lto_priv.0
 .bss.CryptoNvm.lto_priv.0
                0x00000000200007f0        0x4 /tmp/loko_app.yhd4Rs.ltrans0.ltrans.o
                0x00000000200007f0                CryptoNvm.lto_priv.0
 .bss.CtxRestoreDone
                0x00000000200007f4        0x1 /tmp/loko_app.yhd4Rs.ltrans0.ltrans.o
 *fill*         0x00000000200007f5        0x3 
 .bss.DutyCycleWaitTime
                0x00000000200007f8        0x4 /tmp/loko_app.yhd4Rs.ltrans0.ltrans.o
 .bss.IsUplinkTxPending
                0x00000000200007fc        0x1 /tmp/loko_app.yhd4Rs.ltrans0.ltrans.o
 *fill*         0x00000000200007fd        0x3 
 .bss.LW_NVM_BACKUP_RAM
                0x0000000020000800      0x590 /tmp/loko_app.yhd4Rs.ltrans0.ltrans.o
                0x0000000020000800                NvmBackup.lto_priv.0
 .bss.LW_NVM_RAM
                0x0000000020000d90      0x590 /tmp/loko_app.yhd4Rs.ltrans0.ltrans.o
                0x0000000020000d90                Nvm.lto_priv.0
 .bss.LmHandlerCallbacks.lto_priv.0
                0x0000000020001320        0x4 /tmp/loko_app.yhd4Rs.ltrans0.ltrans.o
                0x0000000020001320                LmHandlerCallbacks.lto_priv.0
 .bss.LmHandlerPackages
                0x0000000020001324       0x14 /tmp/loko_app.yhd4Rs.ltrans0.ltrans.o
 .bss.LmHandlerParams
                0x0000000020001338       0x14 /tmp/loko_app.yhd4Rs.ltrans0.ltrans.o
 .bss.LmhpComplianceParams
                0x000000002000134c       0x10 /tmp/loko_app.yhd4Rs.ltrans0.ltrans.o
 .bss.LoRaMacCallbacks
                0x000000002000135c       0x14 /tmp/loko_app.yhd4Rs.ltrans0.ltrans.o
 .bss.LoRaMacPrimitives
                0x0000000020001370       0x10 /tmp/loko_app.yhd4Rs.ltrans0.ltrans.o
 .bss.LoRaMacRadioEvents
                0x0000000020001380        0x4 /tmp/loko_app.yhd4Rs.ltrans0.ltrans.o
 .bss.MacCtx.lto_priv.0
                0x0000000020001384      0x520 /tmp/loko_app.yhd4Rs.ltrans0.ltrans.o
                0x0000000020001384                MacCtx.lto_priv.0
 .bss.NvmNotifyFlags.lto_priv.0
                0x00000000200018a4        0x2 /tmp/loko_app.yhd4Rs.ltrans0.ltrans.o
                0x00000000200018a4                NvmNotifyFlags.lto_priv.0
 *fill*         0x00000000200018a6        0x2 
 .bss.ProcessTimer
                0x00000000200018a8       0x18 /tmp/loko_app.yhd4Rs.ltrans0.ltrans.o
 .bss.RTC_Initialized
                0x00000000200018c0        0x1 /tmp/loko_app.yhd4Rs.ltrans0.ltrans.o
 *fill*         0x00000000200018c1        0x3 
 .bss.RegionBands.lto_priv.0
                0x00000000200018c4       0x90 /tmp/loko_app.yhd4Rs.ltrans0.ltrans.o
 .bss.RegionBands.lto_priv.1
                0x0000000020001954        0x4 /tmp/loko_app.yhd4Rs.ltrans0.ltrans.o
                0x0000000020001954                RegionBands.lto_priv.1
 .bss.RegionBands.lto_priv.10
                0x0000000020001958        0x4 /tmp/loko_app.yhd4Rs.ltrans0.ltrans.o
                0x0000000020001958                RegionBands.lto_priv.10
 .bss.RegionBands.lto_priv.2
                0x000000002000195c        0x4 /tmp/loko_app.yhd4Rs.ltrans0.ltrans.o
                0x000000002000195c                RegionBands.lto_priv.2
 .bss.RegionBands.lto_priv.3
                0x0000000020001960        0x4 /tmp/loko_app.yhd4Rs.ltrans0.ltrans.o
                0x0000000020001960                RegionBands.lto_priv.3
 .bss.RegionBands.lto_priv.4
                0x0000000020001964        0x4 /tmp/loko_app.yhd4Rs.ltrans0.ltrans.o
                0x0000000020001964                RegionBands.lto_priv.4
 .bss.RegionBands.lto_priv.5
                0x0000000020001968        0x4 /tmp/loko_app.yhd4Rs.ltrans0.ltrans.o
                0x0000000020001968                RegionBands.lto_priv.5
 .bss.RegionBands.lto_priv.6
                0x000000002000196c        0x4 /tmp/loko_app.yhd4Rs.ltrans0.ltrans.o
                0x000000002000196c                RegionBands.lto_priv.6
 .bss.RegionBands.lto_priv.7
                0x0000000020001970        0x4 /tmp/loko_app.yhd4Rs.ltrans0.ltrans.o
                0x0000000020001970                RegionBands.lto_priv.7
 .bss.RegionBands.lto_priv.8
                0x0000000020001974        0x4 /tmp/loko_app.yhd4Rs.ltrans0.ltrans.o
                0x0000000020001974                RegionBands.lto_priv.8
 .bss.RegionBands.lto_priv.9
                0x0000000020001978        0x4 /tmp/loko_app.yhd4Rs.ltrans0.ltrans.o
                0x0000000020001978                RegionBands.lto_priv.9
 .bss.RegionNvmGroup1.lto_priv.0
                0x000000002000197c        0x4 /tmp/loko_app.yhd4Rs.ltrans0.ltrans.o
                0x000000002000197c                RegionNvmGroup1.lto_priv.0
 .bss.RegionNvmGroup1.lto_priv.1
                0x0000000020001980        0x4 /tmp/loko_app.yhd4Rs.ltrans0.ltrans.o
                0x0000000020001980                RegionNvmGroup1.lto_priv.1
 .bss.RegionNvmGroup1.lto_priv.2
                0x0000000020001984        0x4 /tmp/loko_app.yhd4Rs.ltrans0.ltrans.o
                0x0000000020001984                RegionNvmGroup1.lto_priv.2
 .bss.RegionNvmGroup2.lto_priv.0
                0x0000000020001988        0x4 /tmp/loko_app.yhd4Rs.ltrans0.ltrans.o
                0x0000000020001988                RegionNvmGroup2.lto_priv.0
 .bss.RegionNvmGroup2.lto_priv.1
                0x000000002000198c        0x4 /tmp/loko_app.yhd4Rs.ltrans0.ltrans.o
                0x000000002000198c                RegionNvmGroup2.lto_priv.1
 .bss.RegionNvmGroup2.lto_priv.2
                0x0000000020001990        0x4 /tmp/loko_app.yhd4Rs.ltrans0.ltrans.o
                0x0000000020001990                RegionNvmGroup2.lto_priv.2
 .bss.RegionNvmGroup2.lto_priv.3
                0x0000000020001994        0x4 /tmp/loko_app.yhd4Rs.ltrans0.ltrans.o
                0x0000000020001994                RegionNvmGroup2.lto_priv.3
 .bss.RegionNvmGroup2.lto_priv.4
                0x0000000020001998        0x4 /tmp/loko_app.yhd4Rs.ltrans0.ltrans.o
                0x0000000020001998                RegionNvmGroup2.lto_priv.4
 .bss.RegionNvmGroup2.lto_priv.5
                0x000000002000199c        0x4 /tmp/loko_app.yhd4Rs.ltrans0.ltrans.o
                0x000000002000199c                RegionNvmGroup2.lto_priv.5
 .bss.RegionNvmGroup2.lto_priv.6
                0x00000000200019a0        0x4 /tmp/loko_app.yhd4Rs.ltrans0.ltrans.o
                0x00000000200019a0                RegionNvmGroup2.lto_priv.6
 .bss.RegionNvmGroup2.lto_priv.7
                0x00000000200019a4        0x4 /tmp/loko_app.yhd4Rs.ltrans0.ltrans.o
                0x00000000200019a4                RegionNvmGroup2.lto_priv.7
 .bss.RegionNvmGroup2.lto_priv.8
                0x00000000200019a8        0x4 /tmp/loko_app.yhd4Rs.ltrans0.ltrans.o
                0x00000000200019a8                RegionNvmGroup2.lto_priv.8
 .bss.RegionNvmGroup2.lto_priv.9
                0x00000000200019ac        0x4 /tmp/loko_app.yhd4Rs.ltrans0.ltrans.o
                0x00000000200019ac                RegionNvmGroup2.lto_priv.9
 .bss.RtcTimerContext
                0x00000000200019b0        0x4 /tmp/loko_app.yhd4Rs.ltrans0.ltrans.o
 .bss.RxDoneParams
                0x00000000200019b4       0x10 /tmp/loko_app.yhd4Rs.ltrans0.ltrans.o
                0x00000000200019b4                RxDoneParams
 .bss.SeNvm.lto_priv.0
                0x00000000200019c4        0x4 /tmp/loko_app.yhd4Rs.ltrans0.ltrans.o
                0x00000000200019c4                SeNvm.lto_priv.0
 .bss.TimerListHead.lto_priv.0
                0x00000000200019c8        0x4 /tmp/loko_app.yhd4Rs.ltrans0.ltrans.o
                0x00000000200019c8                TimerListHead.lto_priv.0
 .bss.TxDoneParams
                0x00000000200019cc        0x4 /tmp/loko_app.yhd4Rs.ltrans0.ltrans.o
 .bss.__sbrk_heap_end
                0x00000000200019d0        0x4 /tmp/loko_app.yhd4Rs.ltrans0.ltrans.o
 .bss._app_data_buffer
                0x00000000200019d4       0xf2 /tmp/loko_app.yhd4Rs.ltrans0.ltrans.o
 *fill*         0x0000000020001ac6        0x2 
 .bss._blink_ts.1
                0x0000000020001ac8        0x4 /tmp/loko_app.yhd4Rs.ltrans0.ltrans.o
 .bss._cayenne_lpp
                0x0000000020001acc       0x2b /tmp/loko_app.yhd4Rs.ltrans0.ltrans.o
 *fill*         0x0000000020001af7        0x1 
 .bss._ctx.lto_priv.0
                0x0000000020001af8       0x88 /tmp/loko_app.yhd4Rs.ltrans0.ltrans.o
                0x0000000020001af8                _ctx.lto_priv.0
 .bss._debug_rx_queue.lto_priv.0
                0x0000000020001b80      0x410 /tmp/loko_app.yhd4Rs.ltrans0.ltrans.o
                0x0000000020001b80                _debug_rx_queue.lto_priv.0
 .bss._gnss.lto_priv.0
                0x0000000020001f90       0xb0 /tmp/loko_app.yhd4Rs.ltrans0.ltrans.o
                0x0000000020001f90                _gnss.lto_priv.0
 .bss._gnss_rx_queue.lto_priv.0
                0x0000000020002040     0x1010 /tmp/loko_app.yhd4Rs.ltrans0.ltrans.o
                0x0000000020002040                _gnss_rx_queue.lto_priv.0
 .bss._gtrace   0x0000000020003050       0x14 /tmp/loko_app.yhd4Rs.ltrans0.ltrans.o
 .bss._io.lto_priv.0
                0x0000000020003064        0x4 /tmp/loko_app.yhd4Rs.ltrans0.ltrans.o
                0x0000000020003064                _io.lto_priv.0
 .bss._is_button_pressed_last_state.3
                0x0000000020003068        0x1 /tmp/loko_app.yhd4Rs.ltrans0.ltrans.o
 .bss._is_enable_by_button
                0x0000000020003069        0x1 /tmp/loko_app.yhd4Rs.ltrans0.ltrans.o
 .bss._is_joined
                0x000000002000306a        0x1 /tmp/loko_app.yhd4Rs.ltrans0.ltrans.o
 .bss._is_power_off_request
                0x000000002000306b        0x1 /tmp/loko_app.yhd4Rs.ltrans0.ltrans.o
 .bss._is_sent  0x000000002000306c        0x1 /tmp/loko_app.yhd4Rs.ltrans0.ltrans.o
 .bss._is_timeout
                0x000000002000306d        0x1 /tmp/loko_app.yhd4Rs.ltrans0.ltrans.o
 .bss._is_tx_complete
                0x000000002000306e        0x1 /tmp/loko_app.yhd4Rs.ltrans0.ltrans.o
 *fill*         0x000000002000306f        0x1 
 .bss._lora_info
                0x0000000020003070       0x10 /tmp/loko_app.yhd4Rs.ltrans0.ltrans.o
 .bss._print_ts.0
                0x0000000020003080        0x4 /tmp/loko_app.yhd4Rs.ltrans0.ltrans.o
 .bss._rtc      0x0000000020003084       0x38 /tmp/loko_app.yhd4Rs.ltrans0.ltrans.o
                0x0000000020003084                _rtc
 .bss._rx_data  0x00000000200030bc      0x400 /tmp/loko_app.yhd4Rs.ltrans0.ltrans.o
 .bss._rx_data_index
                0x00000000200034bc        0x4 /tmp/loko_app.yhd4Rs.ltrans0.ltrans.o
 .bss._storage.lto_priv.0
                0x00000000200034c0       0x60 /tmp/loko_app.yhd4Rs.ltrans0.ltrans.o
                0x00000000200034c0                _storage.lto_priv.0
 .bss._system_state
                0x0000000020003520        0x1 /tmp/loko_app.yhd4Rs.ltrans0.ltrans.o
 *fill*         0x0000000020003521        0x7 
 .bss._uid64.1  0x0000000020003528        0x8 /tmp/loko_app.yhd4Rs.ltrans0.ltrans.o
 .bss._vbat_measure_ts.2
                0x0000000020003530        0x4 /tmp/loko_app.yhd4Rs.ltrans0.ltrans.o
 .bss.hsubghz   0x0000000020003534        0xc /tmp/loko_app.yhd4Rs.ltrans0.ltrans.o
                0x0000000020003534                hsubghz
 .bss.previous_byte.0
                0x0000000020003540        0x1 /tmp/loko_app.yhd4Rs.ltrans0.ltrans.o
 *fill*         0x0000000020003541        0x3 
 .bss.uwTick    0x0000000020003544        0x4 /tmp/loko_app.yhd4Rs.ltrans0.ltrans.o
                0x0000000020003544                uwTick
 .bss.FrequencyError
                0x0000000020003548        0x4 /tmp/loko_app.yhd4Rs.ltrans1.ltrans.o
 .bss.ImageCalibrated
                0x000000002000354c        0x1 /tmp/loko_app.yhd4Rs.ltrans1.ltrans.o
 .bss.LoRaHeaderType
                0x000000002000354d        0x1 /tmp/loko_app.yhd4Rs.ltrans1.ltrans.o
 .bss.OperatingMode
                0x000000002000354e        0x1 /tmp/loko_app.yhd4Rs.ltrans1.ltrans.o
 .bss.PacketType
                0x000000002000354f        0x1 /tmp/loko_app.yhd4Rs.ltrans1.ltrans.o
 .bss.RadioBuffer
                0x0000000020003550       0xff /tmp/loko_app.yhd4Rs.ltrans1.ltrans.o
 *fill*         0x000000002000364f        0x1 
 .bss.RadioEvents
                0x0000000020003650        0x4 /tmp/loko_app.yhd4Rs.ltrans1.ltrans.o
 .bss.RadioOnDioIrqCb
                0x0000000020003654        0x4 /tmp/loko_app.yhd4Rs.ltrans1.ltrans.o
 .bss.RxTimeoutTimer
                0x0000000020003658       0x18 /tmp/loko_app.yhd4Rs.ltrans1.ltrans.o
 .bss.SubgRf    0x0000000020003670       0x5c /tmp/loko_app.yhd4Rs.ltrans1.ltrans.o
 .bss.TxTimeoutTimer
                0x00000000200036cc       0x18 /tmp/loko_app.yhd4Rs.ltrans1.ltrans.o
 .bss._adc_done
                0x00000000200036e4        0x1 /tmp/loko_app.yhd4Rs.ltrans1.ltrans.o
 *fill*         0x00000000200036e5        0x3 
 .bss._hdma_adc
                0x00000000200036e8       0x60 /tmp/loko_app.yhd4Rs.ltrans1.ltrans.o
 .bss._is_queue_full_dbg_display.6
                0x0000000020003748        0x1 /tmp/loko_app.yhd4Rs.ltrans1.ltrans.o
 .bss._is_queue_full_dbg_display.7
                0x0000000020003749        0x1 /tmp/loko_app.yhd4Rs.ltrans1.ltrans.o
 *fill*         0x000000002000374a        0x2 
 .bss._values   0x000000002000374c        0x8 /tmp/loko_app.yhd4Rs.ltrans1.ltrans.o
 .bss.pFlash    0x0000000020003754       0x18 /tmp/loko_app.yhd4Rs.ltrans2.ltrans.o
 .bss.__lock___malloc_recursive_mutex
                0x000000002000376c        0x1 /usr/gcc-arm-none-eabi-10.3-2021.07/bin/../lib/gcc/arm-none-eabi/10.3.1/../../../../arm-none-eabi/lib/thumb/v7e-m/nofp/libg_nano.a(lib_a-lock.o)
                0x000000002000376c                __lock___malloc_recursive_mutex
 .bss.__lock___sfp_recursive_mutex
                0x000000002000376d        0x1 /usr/gcc-arm-none-eabi-10.3-2021.07/bin/../lib/gcc/arm-none-eabi/10.3.1/../../../../arm-none-eabi/lib/thumb/v7e-m/nofp/libg_nano.a(lib_a-lock.o)
                0x000000002000376d                __lock___sfp_recursive_mutex
 .bss.__lock___sinit_recursive_mutex
                0x000000002000376e        0x1 /usr/gcc-arm-none-eabi-10.3-2021.07/bin/../lib/gcc/arm-none-eabi/10.3.1/../../../../arm-none-eabi/lib/thumb/v7e-m/nofp/libg_nano.a(lib_a-lock.o)
                0x000000002000376e                __lock___sinit_recursive_mutex
 *fill*         0x000000002000376f        0x1 
 .bss.__malloc_free_list
                0x0000000020003770        0x4 /usr/gcc-arm-none-eabi-10.3-2021.07/bin/../lib/gcc/arm-none-eabi/10.3.1/../../../../arm-none-eabi/lib/thumb/v7e-m/nofp/libg_nano.a(lib_a-nano-mallocr.o)
                0x0000000020003770                __malloc_free_list
 .bss.__malloc_sbrk_start
                0x0000000020003774        0x4 /usr/gcc-arm-none-eabi-10.3-2021.07/bin/../lib/gcc/arm-none-eabi/10.3.1/../../../../arm-none-eabi/lib/thumb/v7e-m/nofp/libg_nano.a(lib_a-nano-mallocr.o)
                0x0000000020003774                __malloc_sbrk_start
 .bss.errno     0x0000000020003778        0x4 /usr/gcc-arm-none-eabi-10.3-2021.07/bin/../lib/gcc/arm-none-eabi/10.3.1/../../../../arm-none-eabi/lib/thumb/v7e-m/nofp/libg_nano.a(lib_a-reent.o)
                0x0000000020003778                errno
 *(COMMON)
                0x000000002000377c                . = ALIGN (0x4)
                0x000000002000377c                _ebss = .
                0x000000002000377c                __bss_end__ = _ebss

._user_heap_stack
                0x000000002000377c      0x604
                0x0000000020003780                . = ALIGN (0x8)
 *fill*         0x000000002000377c        0x4 
                [!provide]                        PROVIDE (end = .)
                0x0000000020003780                PROVIDE (_end = .)
                0x0000000020003980                . = (. + _Min_Heap_Size)
 *fill*         0x0000000020003780      0x200 
                0x0000000020003d80                . = (. + _Min_Stack_Size)
 *fill*         0x0000000020003980      0x400 
                0x0000000020003d80                . = ALIGN (0x8)

/DISCARD/
 libc.a(*)
 libm.a(*)
 libgcc.a(*)

.ARM.attributes
                0x0000000000000000       0x2a
 *(.ARM.attributes)
 .ARM.attributes
                0x0000000000000000       0x1e /usr/gcc-arm-none-eabi-10.3-2021.07/bin/../lib/gcc/arm-none-eabi/10.3.1/thumb/v7e-m/nofp/crti.o
 .ARM.attributes
                0x000000000000001e       0x2e /usr/gcc-arm-none-eabi-10.3-2021.07/bin/../lib/gcc/arm-none-eabi/10.3.1/thumb/v7e-m/nofp/crtbegin.o
 .ARM.attributes
                0x000000000000004c       0x2c /tmp/loko_app.yhd4Rs.ltrans0.ltrans.o
 .ARM.attributes
                0x0000000000000078       0x2c /tmp/loko_app.yhd4Rs.ltrans1.ltrans.o
 .ARM.attributes
                0x00000000000000a4       0x2c /tmp/loko_app.yhd4Rs.ltrans2.ltrans.o
 .ARM.attributes
                0x00000000000000d0       0x21 out/libbsp_loko_app.a(startup_stm32wle5jcix.s.obj)
 .ARM.attributes
                0x00000000000000f1       0x2e /usr/gcc-arm-none-eabi-10.3-2021.07/bin/../lib/gcc/arm-none-eabi/10.3.1/../../../../arm-none-eabi/lib/thumb/v7e-m/nofp/libg_nano.a(lib_a-assert.o)
 .ARM.attributes
                0x000000000000011f       0x2e /usr/gcc-arm-none-eabi-10.3-2021.07/bin/../lib/gcc/arm-none-eabi/10.3.1/../../../../arm-none-eabi/lib/thumb/v7e-m/nofp/libg_nano.a(lib_a-ctype_.o)
 .ARM.attributes
                0x000000000000014d       0x2e /usr/gcc-arm-none-eabi-10.3-2021.07/bin/../lib/gcc/arm-none-eabi/10.3.1/../../../../arm-none-eabi/lib/thumb/v7e-m/nofp/libg_nano.a(lib_a-errno.o)
 .ARM.attributes
                0x000000000000017b       0x2e /usr/gcc-arm-none-eabi-10.3-2021.07/bin/../lib/gcc/arm-none-eabi/10.3.1/../../../../arm-none-eabi/lib/thumb/v7e-m/nofp/libg_nano.a(lib_a-fprintf.o)
 .ARM.attributes
                0x00000000000001a9       0x2e /usr/gcc-arm-none-eabi-10.3-2021.07/bin/../lib/gcc/arm-none-eabi/10.3.1/../../../../arm-none-eabi/lib/thumb/v7e-m/nofp/libg_nano.a(lib_a-impure.o)
 .ARM.attributes
                0x00000000000001d7       0x2e /usr/gcc-arm-none-eabi-10.3-2021.07/bin/../lib/gcc/arm-none-eabi/10.3.1/../../../../arm-none-eabi/lib/thumb/v7e-m/nofp/libg_nano.a(lib_a-init.o)
 .ARM.attributes
                0x0000000000000205       0x2e /usr/gcc-arm-none-eabi-10.3-2021.07/bin/../lib/gcc/arm-none-eabi/10.3.1/../../../../arm-none-eabi/lib/thumb/v7e-m/nofp/libg_nano.a(lib_a-memset.o)
 .ARM.attributes
                0x0000000000000233       0x2e /usr/gcc-arm-none-eabi-10.3-2021.07/bin/../lib/gcc/arm-none-eabi/10.3.1/../../../../arm-none-eabi/lib/thumb/v7e-m/nofp/libg_nano.a(lib_a-nano-vfprintf.o)
 .ARM.attributes
                0x0000000000000261       0x2e /usr/gcc-arm-none-eabi-10.3-2021.07/bin/../lib/gcc/arm-none-eabi/10.3.1/../../../../arm-none-eabi/lib/thumb/v7e-m/nofp/libg_nano.a(lib_a-nano-vfprintf_float.o)
 .ARM.attributes
                0x000000000000028f       0x2e /usr/gcc-arm-none-eabi-10.3-2021.07/bin/../lib/gcc/arm-none-eabi/10.3.1/../../../../arm-none-eabi/lib/thumb/v7e-m/nofp/libg_nano.a(lib_a-nano-vfprintf_i.o)
 .ARM.attributes
                0x00000000000002bd       0x17 /usr/gcc-arm-none-eabi-10.3-2021.07/bin/../lib/gcc/arm-none-eabi/10.3.1/../../../../arm-none-eabi/lib/thumb/v7e-m/nofp/libg_nano.a(lib_a-strlen.o)
 .ARM.attributes
                0x00000000000002d4       0x2e /usr/gcc-arm-none-eabi-10.3-2021.07/bin/../lib/gcc/arm-none-eabi/10.3.1/../../../../arm-none-eabi/lib/thumb/v7e-m/nofp/libg_nano.a(lib_a-strtod.o)
 .ARM.attributes
                0x0000000000000302       0x2e /usr/gcc-arm-none-eabi-10.3-2021.07/bin/../lib/gcc/arm-none-eabi/10.3.1/../../../../arm-none-eabi/lib/thumb/v7e-m/nofp/libg_nano.a(lib_a-strtoll.o)
 .ARM.attributes
                0x0000000000000330       0x2e /usr/gcc-arm-none-eabi-10.3-2021.07/bin/../lib/gcc/arm-none-eabi/10.3.1/../../../../arm-none-eabi/lib/thumb/v7e-m/nofp/libg_nano.a(lib_a-strtoull.o)
 .ARM.attributes
                0x000000000000035e       0x2e /usr/gcc-arm-none-eabi-10.3-2021.07/bin/../lib/gcc/arm-none-eabi/10.3.1/../../../../arm-none-eabi/lib/thumb/v7e-m/nofp/libg_nano.a(lib_a-wbuf.o)
 .ARM.attributes
                0x000000000000038c       0x2e /usr/gcc-arm-none-eabi-10.3-2021.07/bin/../lib/gcc/arm-none-eabi/10.3.1/../../../../arm-none-eabi/lib/thumb/v7e-m/nofp/libg_nano.a(lib_a-wsetup.o)
 .ARM.attributes
                0x00000000000003ba       0x2e /usr/gcc-arm-none-eabi-10.3-2021.07/bin/../lib/gcc/arm-none-eabi/10.3.1/../../../../arm-none-eabi/lib/thumb/v7e-m/nofp/libg_nano.a(lib_a-abort.o)
 .ARM.attributes
                0x00000000000003e8       0x2e /usr/gcc-arm-none-eabi-10.3-2021.07/bin/../lib/gcc/arm-none-eabi/10.3.1/../../../../arm-none-eabi/lib/thumb/v7e-m/nofp/libg_nano.a(lib_a-dtoa.o)
 .ARM.attributes
                0x0000000000000416       0x2e /usr/gcc-arm-none-eabi-10.3-2021.07/bin/../lib/gcc/arm-none-eabi/10.3.1/../../../../arm-none-eabi/lib/thumb/v7e-m/nofp/libg_nano.a(lib_a-fflush.o)
 .ARM.attributes
                0x0000000000000444       0x2e /usr/gcc-arm-none-eabi-10.3-2021.07/bin/../lib/gcc/arm-none-eabi/10.3.1/../../../../arm-none-eabi/lib/thumb/v7e-m/nofp/libg_nano.a(lib_a-findfp.o)
 .ARM.attributes
                0x0000000000000472       0x2e /usr/gcc-arm-none-eabi-10.3-2021.07/bin/../lib/gcc/arm-none-eabi/10.3.1/../../../../arm-none-eabi/lib/thumb/v7e-m/nofp/libg_nano.a(lib_a-fwalk.o)
 .ARM.attributes
                0x00000000000004a0       0x2e /usr/gcc-arm-none-eabi-10.3-2021.07/bin/../lib/gcc/arm-none-eabi/10.3.1/../../../../arm-none-eabi/lib/thumb/v7e-m/nofp/libg_nano.a(lib_a-gdtoa-gethex.o)
 .ARM.attributes
                0x00000000000004ce       0x2e /usr/gcc-arm-none-eabi-10.3-2021.07/bin/../lib/gcc/arm-none-eabi/10.3.1/../../../../arm-none-eabi/lib/thumb/v7e-m/nofp/libg_nano.a(lib_a-gdtoa-hexnan.o)
 .ARM.attributes
                0x00000000000004fc       0x2e /usr/gcc-arm-none-eabi-10.3-2021.07/bin/../lib/gcc/arm-none-eabi/10.3.1/../../../../arm-none-eabi/lib/thumb/v7e-m/nofp/libg_nano.a(lib_a-lnumeric.o)
 .ARM.attributes
                0x000000000000052a       0x2e /usr/gcc-arm-none-eabi-10.3-2021.07/bin/../lib/gcc/arm-none-eabi/10.3.1/../../../../arm-none-eabi/lib/thumb/v7e-m/nofp/libg_nano.a(lib_a-locale.o)
 .ARM.attributes
                0x0000000000000558       0x2e /usr/gcc-arm-none-eabi-10.3-2021.07/bin/../lib/gcc/arm-none-eabi/10.3.1/../../../../arm-none-eabi/lib/thumb/v7e-m/nofp/libg_nano.a(lib_a-localeconv.o)
 .ARM.attributes
                0x0000000000000586       0x2e /usr/gcc-arm-none-eabi-10.3-2021.07/bin/../lib/gcc/arm-none-eabi/10.3.1/../../../../arm-none-eabi/lib/thumb/v7e-m/nofp/libg_nano.a(lib_a-lock.o)
 .ARM.attributes
                0x00000000000005b4       0x2e /usr/gcc-arm-none-eabi-10.3-2021.07/bin/../lib/gcc/arm-none-eabi/10.3.1/../../../../arm-none-eabi/lib/thumb/v7e-m/nofp/libg_nano.a(lib_a-makebuf.o)
 .ARM.attributes
                0x00000000000005e2       0x2e /usr/gcc-arm-none-eabi-10.3-2021.07/bin/../lib/gcc/arm-none-eabi/10.3.1/../../../../arm-none-eabi/lib/thumb/v7e-m/nofp/libg_nano.a(lib_a-malloc.o)
 .ARM.attributes
                0x0000000000000610       0x2e /usr/gcc-arm-none-eabi-10.3-2021.07/bin/../lib/gcc/arm-none-eabi/10.3.1/../../../../arm-none-eabi/lib/thumb/v7e-m/nofp/libg_nano.a(lib_a-mbtowc_r.o)
 .ARM.attributes
                0x000000000000063e       0x1c /usr/gcc-arm-none-eabi-10.3-2021.07/bin/../lib/gcc/arm-none-eabi/10.3.1/../../../../arm-none-eabi/lib/thumb/v7e-m/nofp/libg_nano.a(lib_a-memchr.o)
 .ARM.attributes
                0x000000000000065a       0x2e /usr/gcc-arm-none-eabi-10.3-2021.07/bin/../lib/gcc/arm-none-eabi/10.3.1/../../../../arm-none-eabi/lib/thumb/v7e-m/nofp/libg_nano.a(lib_a-memcpy-stub.o)
 .ARM.attributes
                0x0000000000000688       0x2e /usr/gcc-arm-none-eabi-10.3-2021.07/bin/../lib/gcc/arm-none-eabi/10.3.1/../../../../arm-none-eabi/lib/thumb/v7e-m/nofp/libg_nano.a(lib_a-memmove.o)
 .ARM.attributes
                0x00000000000006b6       0x2e /usr/gcc-arm-none-eabi-10.3-2021.07/bin/../lib/gcc/arm-none-eabi/10.3.1/../../../../arm-none-eabi/lib/thumb/v7e-m/nofp/libg_nano.a(lib_a-mprec.o)
 .ARM.attributes
                0x00000000000006e4       0x2e /usr/gcc-arm-none-eabi-10.3-2021.07/bin/../lib/gcc/arm-none-eabi/10.3.1/../../../../arm-none-eabi/lib/thumb/v7e-m/nofp/libg_nano.a(lib_a-nano-callocr.o)
 .ARM.attributes
                0x0000000000000712       0x2e /usr/gcc-arm-none-eabi-10.3-2021.07/bin/../lib/gcc/arm-none-eabi/10.3.1/../../../../arm-none-eabi/lib/thumb/v7e-m/nofp/libg_nano.a(lib_a-nano-freer.o)
 .ARM.attributes
                0x0000000000000740       0x2e /usr/gcc-arm-none-eabi-10.3-2021.07/bin/../lib/gcc/arm-none-eabi/10.3.1/../../../../arm-none-eabi/lib/thumb/v7e-m/nofp/libg_nano.a(lib_a-nano-mallocr.o)
 .ARM.attributes
                0x000000000000076e       0x2e /usr/gcc-arm-none-eabi-10.3-2021.07/bin/../lib/gcc/arm-none-eabi/10.3.1/../../../../arm-none-eabi/lib/thumb/v7e-m/nofp/libg_nano.a(lib_a-nano-reallocr.o)
 .ARM.attributes
                0x000000000000079c       0x2e /usr/gcc-arm-none-eabi-10.3-2021.07/bin/../lib/gcc/arm-none-eabi/10.3.1/../../../../arm-none-eabi/lib/thumb/v7e-m/nofp/libg_nano.a(lib_a-s_nan.o)
 .ARM.attributes
                0x00000000000007ca       0x2e /usr/gcc-arm-none-eabi-10.3-2021.07/bin/../lib/gcc/arm-none-eabi/10.3.1/../../../../arm-none-eabi/lib/thumb/v7e-m/nofp/libg_nano.a(lib_a-sbrkr.o)
 .ARM.attributes
                0x00000000000007f8       0x2e /usr/gcc-arm-none-eabi-10.3-2021.07/bin/../lib/gcc/arm-none-eabi/10.3.1/../../../../arm-none-eabi/lib/thumb/v7e-m/nofp/libg_nano.a(lib_a-signal.o)
 .ARM.attributes
                0x0000000000000826       0x2e /usr/gcc-arm-none-eabi-10.3-2021.07/bin/../lib/gcc/arm-none-eabi/10.3.1/../../../../arm-none-eabi/lib/thumb/v7e-m/nofp/libg_nano.a(lib_a-signalr.o)
 .ARM.attributes
                0x0000000000000854       0x2e /usr/gcc-arm-none-eabi-10.3-2021.07/bin/../lib/gcc/arm-none-eabi/10.3.1/../../../../arm-none-eabi/lib/thumb/v7e-m/nofp/libg_nano.a(lib_a-stdio.o)
 .ARM.attributes
                0x0000000000000882       0x2e /usr/gcc-arm-none-eabi-10.3-2021.07/bin/../lib/gcc/arm-none-eabi/10.3.1/../../../../arm-none-eabi/lib/thumb/v7e-m/nofp/libg_nano.a(lib_a-strncmp.o)
 .ARM.attributes
                0x00000000000008b0       0x2e /usr/gcc-arm-none-eabi-10.3-2021.07/bin/../lib/gcc/arm-none-eabi/10.3.1/../../../../arm-none-eabi/lib/thumb/v7e-m/nofp/libg_nano.a(lib_a-wctomb_r.o)
 .ARM.attributes
                0x00000000000008de       0x2e /usr/gcc-arm-none-eabi-10.3-2021.07/bin/../lib/gcc/arm-none-eabi/10.3.1/../../../../arm-none-eabi/lib/thumb/v7e-m/nofp/libg_nano.a(lib_a-writer.o)
 .ARM.attributes
                0x000000000000090c       0x2e /usr/gcc-arm-none-eabi-10.3-2021.07/bin/../lib/gcc/arm-none-eabi/10.3.1/../../../../arm-none-eabi/lib/thumb/v7e-m/nofp/libg_nano.a(lib_a-closer.o)
 .ARM.attributes
                0x000000000000093a       0x2e /usr/gcc-arm-none-eabi-10.3-2021.07/bin/../lib/gcc/arm-none-eabi/10.3.1/../../../../arm-none-eabi/lib/thumb/v7e-m/nofp/libg_nano.a(lib_a-fstatr.o)
 .ARM.attributes
                0x0000000000000968       0x2e /usr/gcc-arm-none-eabi-10.3-2021.07/bin/../lib/gcc/arm-none-eabi/10.3.1/../../../../arm-none-eabi/lib/thumb/v7e-m/nofp/libg_nano.a(lib_a-isattyr.o)
 .ARM.attributes
                0x0000000000000996       0x2e /usr/gcc-arm-none-eabi-10.3-2021.07/bin/../lib/gcc/arm-none-eabi/10.3.1/../../../../arm-none-eabi/lib/thumb/v7e-m/nofp/libg_nano.a(lib_a-lseekr.o)
 .ARM.attributes
                0x00000000000009c4       0x2e /usr/gcc-arm-none-eabi-10.3-2021.07/bin/../lib/gcc/arm-none-eabi/10.3.1/../../../../arm-none-eabi/lib/thumb/v7e-m/nofp/libg_nano.a(lib_a-mlock.o)
 .ARM.attributes
                0x00000000000009f2       0x2e /usr/gcc-arm-none-eabi-10.3-2021.07/bin/../lib/gcc/arm-none-eabi/10.3.1/../../../../arm-none-eabi/lib/thumb/v7e-m/nofp/libg_nano.a(lib_a-nano-msizer.o)
 .ARM.attributes
                0x0000000000000a20       0x2e /usr/gcc-arm-none-eabi-10.3-2021.07/bin/../lib/gcc/arm-none-eabi/10.3.1/../../../../arm-none-eabi/lib/thumb/v7e-m/nofp/libg_nano.a(lib_a-readr.o)
 .ARM.attributes
                0x0000000000000a4e       0x2e /usr/gcc-arm-none-eabi-10.3-2021.07/bin/../lib/gcc/arm-none-eabi/10.3.1/../../../../arm-none-eabi/lib/thumb/v7e-m/nofp/libg_nano.a(lib_a-reent.o)
 .ARM.attributes
                0x0000000000000a7c       0x2e /usr/gcc-arm-none-eabi-10.3-2021.07/bin/../lib/gcc/arm-none-eabi/10.3.1/../../../../arm-none-eabi/lib/thumb/v7e-m/nofp/libg_nano.a(lib_a-memcmp.o)
 .ARM.attributes
                0x0000000000000aaa       0x2e /usr/gcc-arm-none-eabi-10.3-2021.07/bin/../lib/gcc/arm-none-eabi/10.3.1/../../../../arm-none-eabi/lib/thumb/v7e-m/nofp/libg_nano.a(lib_a-snprintf.o)
 .ARM.attributes
                0x0000000000000ad8       0x2e /usr/gcc-arm-none-eabi-10.3-2021.07/bin/../lib/gcc/arm-none-eabi/10.3.1/../../../../arm-none-eabi/lib/thumb/v7e-m/nofp/libg_nano.a(lib_a-strncasecmp.o)
 .ARM.attributes
                0x0000000000000b06       0x2e /usr/gcc-arm-none-eabi-10.3-2021.07/bin/../lib/gcc/arm-none-eabi/10.3.1/../../../../arm-none-eabi/lib/thumb/v7e-m/nofp/libg_nano.a(lib_a-vsnprintf.o)
 .ARM.attributes
                0x0000000000000b34       0x2e /usr/gcc-arm-none-eabi-10.3-2021.07/bin/../lib/gcc/arm-none-eabi/10.3.1/../../../../arm-none-eabi/lib/thumb/v7e-m/nofp/libg_nano.a(lib_a-nano-svfprintf.o)
 .ARM.attributes
                0x0000000000000b62       0x1e /usr/gcc-arm-none-eabi-10.3-2021.07/bin/../lib/gcc/arm-none-eabi/10.3.1/thumb/v7e-m/nofp/libgcc.a(_arm_addsubdf3.o)
 .ARM.attributes
                0x0000000000000b80       0x1e /usr/gcc-arm-none-eabi-10.3-2021.07/bin/../lib/gcc/arm-none-eabi/10.3.1/thumb/v7e-m/nofp/libgcc.a(_arm_muldivdf3.o)
 .ARM.attributes
                0x0000000000000b9e       0x1e /usr/gcc-arm-none-eabi-10.3-2021.07/bin/../lib/gcc/arm-none-eabi/10.3.1/thumb/v7e-m/nofp/libgcc.a(_arm_cmpdf2.o)
 .ARM.attributes
                0x0000000000000bbc       0x1e /usr/gcc-arm-none-eabi-10.3-2021.07/bin/../lib/gcc/arm-none-eabi/10.3.1/thumb/v7e-m/nofp/libgcc.a(_arm_unorddf2.o)
 .ARM.attributes
                0x0000000000000bda       0x1e /usr/gcc-arm-none-eabi-10.3-2021.07/bin/../lib/gcc/arm-none-eabi/10.3.1/thumb/v7e-m/nofp/libgcc.a(_arm_fixdfsi.o)
 .ARM.attributes
                0x0000000000000bf8       0x1e /usr/gcc-arm-none-eabi-10.3-2021.07/bin/../lib/gcc/arm-none-eabi/10.3.1/thumb/v7e-m/nofp/libgcc.a(_arm_fixunsdfsi.o)
 .ARM.attributes
                0x0000000000000c16       0x1e /usr/gcc-arm-none-eabi-10.3-2021.07/bin/../lib/gcc/arm-none-eabi/10.3.1/thumb/v7e-m/nofp/libgcc.a(_arm_truncdfsf2.o)
 .ARM.attributes
                0x0000000000000c34       0x1e /usr/gcc-arm-none-eabi-10.3-2021.07/bin/../lib/gcc/arm-none-eabi/10.3.1/thumb/v7e-m/nofp/libgcc.a(_arm_cmpsf2.o)
 .ARM.attributes
                0x0000000000000c52       0x1e /usr/gcc-arm-none-eabi-10.3-2021.07/bin/../lib/gcc/arm-none-eabi/10.3.1/thumb/v7e-m/nofp/libgcc.a(_aeabi_uldivmod.o)
 .ARM.attributes
                0x0000000000000c70       0x2e /usr/gcc-arm-none-eabi-10.3-2021.07/bin/../lib/gcc/arm-none-eabi/10.3.1/thumb/v7e-m/nofp/libgcc.a(_fixdfdi.o)
 .ARM.attributes
                0x0000000000000c9e       0x2e /usr/gcc-arm-none-eabi-10.3-2021.07/bin/../lib/gcc/arm-none-eabi/10.3.1/thumb/v7e-m/nofp/libgcc.a(_fixunsdfdi.o)
 .ARM.attributes
                0x0000000000000ccc       0x2e /usr/gcc-arm-none-eabi-10.3-2021.07/bin/../lib/gcc/arm-none-eabi/10.3.1/thumb/v7e-m/nofp/libgcc.a(_udivmoddi4.o)
 .ARM.attributes
                0x0000000000000cfa       0x1e /usr/gcc-arm-none-eabi-10.3-2021.07/bin/../lib/gcc/arm-none-eabi/10.3.1/thumb/v7e-m/nofp/libgcc.a(_dvmd_tls.o)
 .ARM.attributes
                0x0000000000000d18       0x2e /usr/gcc-arm-none-eabi-10.3-2021.07/bin/../lib/gcc/arm-none-eabi/10.3.1/../../../../arm-none-eabi/lib/thumb/v7e-m/nofp/libnosys.a(close.o)
 .ARM.attributes
                0x0000000000000d46       0x2e /usr/gcc-arm-none-eabi-10.3-2021.07/bin/../lib/gcc/arm-none-eabi/10.3.1/../../../../arm-none-eabi/lib/thumb/v7e-m/nofp/libnosys.a(fstat.o)
 .ARM.attributes
                0x0000000000000d74       0x2e /usr/gcc-arm-none-eabi-10.3-2021.07/bin/../lib/gcc/arm-none-eabi/10.3.1/../../../../arm-none-eabi/lib/thumb/v7e-m/nofp/libnosys.a(getpid.o)
 .ARM.attributes
                0x0000000000000da2       0x2e /usr/gcc-arm-none-eabi-10.3-2021.07/bin/../lib/gcc/arm-none-eabi/10.3.1/../../../../arm-none-eabi/lib/thumb/v7e-m/nofp/libnosys.a(isatty.o)
 .ARM.attributes
                0x0000000000000dd0       0x2e /usr/gcc-arm-none-eabi-10.3-2021.07/bin/../lib/gcc/arm-none-eabi/10.3.1/../../../../arm-none-eabi/lib/thumb/v7e-m/nofp/libnosys.a(kill.o)
 .ARM.attributes
                0x0000000000000dfe       0x2e /usr/gcc-arm-none-eabi-10.3-2021.07/bin/../lib/gcc/arm-none-eabi/10.3.1/../../../../arm-none-eabi/lib/thumb/v7e-m/nofp/libnosys.a(lseek.o)
 .ARM.attributes
                0x0000000000000e2c       0x2e /usr/gcc-arm-none-eabi-10.3-2021.07/bin/../lib/gcc/arm-none-eabi/10.3.1/../../../../arm-none-eabi/lib/thumb/v7e-m/nofp/libnosys.a(read.o)
 .ARM.attributes
                0x0000000000000e5a       0x2e /usr/gcc-arm-none-eabi-10.3-2021.07/bin/../lib/gcc/arm-none-eabi/10.3.1/../../../../arm-none-eabi/lib/thumb/v7e-m/nofp/libnosys.a(write.o)
 .ARM.attributes
                0x0000000000000e88       0x2e /usr/gcc-arm-none-eabi-10.3-2021.07/bin/../lib/gcc/arm-none-eabi/10.3.1/../../../../arm-none-eabi/lib/thumb/v7e-m/nofp/libnosys.a(_exit.o)
 .ARM.attributes
                0x0000000000000eb6       0x1e /usr/gcc-arm-none-eabi-10.3-2021.07/bin/../lib/gcc/arm-none-eabi/10.3.1/thumb/v7e-m/nofp/libgcc.a(_arm_addsubsf3.o)
 .ARM.attributes
                0x0000000000000ed4       0x1e /usr/gcc-arm-none-eabi-10.3-2021.07/bin/../lib/gcc/arm-none-eabi/10.3.1/thumb/v7e-m/nofp/libgcc.a(_arm_muldivsf3.o)
 .ARM.attributes
                0x0000000000000ef2       0x1e /usr/gcc-arm-none-eabi-10.3-2021.07/bin/../lib/gcc/arm-none-eabi/10.3.1/thumb/v7e-m/nofp/libgcc.a(_arm_fixsfsi.o)
 .ARM.attributes
                0x0000000000000f10       0x1e /usr/gcc-arm-none-eabi-10.3-2021.07/bin/../lib/gcc/arm-none-eabi/10.3.1/thumb/v7e-m/nofp/libgcc.a(_arm_fixunssfsi.o)
 .ARM.attributes
                0x0000000000000f2e       0x1e /usr/gcc-arm-none-eabi-10.3-2021.07/bin/../lib/gcc/arm-none-eabi/10.3.1/thumb/v7e-m/nofp/crtn.o
OUTPUT(out/loko_app elf32-littlearm)
LOAD linker stubs
LOAD /usr/gcc-arm-none-eabi-10.3-2021.07/bin/../lib/gcc/arm-none-eabi/10.3.1/../../../../arm-none-eabi/lib/thumb/v7e-m/nofp/libc.a
LOAD /usr/gcc-arm-none-eabi-10.3-2021.07/bin/../lib/gcc/arm-none-eabi/10.3.1/../../../../arm-none-eabi/lib/thumb/v7e-m/nofp/libm.a
LOAD /usr/gcc-arm-none-eabi-10.3-2021.07/bin/../lib/gcc/arm-none-eabi/10.3.1/thumb/v7e-m/nofp/libgcc.a

.debug_info     0x0000000000000000    0x6acd2
 .debug_info    0x0000000000000000     0xf49a /tmp/loko_app.yhd4Rs.ltrans0.ltrans.o
 .debug_info    0x000000000000f49a     0x9c8a /tmp/loko_app.yhd4Rs.ltrans1.ltrans.o
 .debug_info    0x0000000000019124     0x5ba1 /tmp/loko_app.yhd4Rs.ltrans2.ltrans.o
 .debug_info    0x000000000001ecc5      0xc35 /tmp/ccb1mE2G.debug.temp.o
                0x000000000001ecc5                lora_app.c.cf319953
 .debug_info    0x000000000001f8fa      0x1a0 /tmp/ccvtyvG1.debug.temp.o
                0x000000000001f8fa                lora_info.c.592dd879
 .debug_info    0x000000000001fa9a      0x5b2 /tmp/ccf4nu6k.debug.temp.o
                0x000000000001fa9a                stm32_systime.c.f841a350
 .debug_info    0x000000000002004c      0x690 /tmp/ccnVlKlu.debug.temp.o
                0x000000000002004c                stm32_timer.c.e7cbf8b3
 .debug_info    0x00000000000206dc      0xa70 /tmp/ccv9rn0j.debug.temp.o
                0x00000000000206dc                timer_if.c.2c73848c
 .debug_info    0x000000000002114c     0x1519 /tmp/cceua3JK.debug.temp.o
                0x000000000002114c                application.c.c68f3392
 .debug_info    0x0000000000022665     0x108d /tmp/cc8Bwa48.debug.temp.o
                0x0000000000022665                subghz_phy_app.c.991e75f8
 .debug_info    0x00000000000236f2      0x12c /tmp/ccGbhCYF.debug.temp.o
                0x00000000000236f2                sysmem.c.a8792dc1
 .debug_info    0x000000000002381e      0x157 /tmp/ccw5WUJ6.debug.temp.o
                0x000000000002381e                version.c.7e2c8eaf
 .debug_info    0x0000000000023975      0x599 /tmp/ccKx6cKM.debug.temp.o
                0x0000000000023975                cayenne_lpp_c.c.ca683a6d
 .debug_info    0x0000000000023f0e      0xc20 /tmp/cc9VkKNH.debug.temp.o
                0x0000000000023f0e                cmd_line.c.15a4e308
 .debug_info    0x0000000000024b2e      0x22d /tmp/ccqcO2kI.debug.temp.o
                0x0000000000024b2e                encrypt_p2p_payload.c.37000e0c
 .debug_info    0x0000000000024d5b      0x4a4 /tmp/ccnpwgnj.debug.temp.o
                0x0000000000024d5b                gnss_trace.c.46c9ff4d
 .debug_info    0x00000000000251ff      0x3cd /tmp/cc9Mtpmj.debug.temp.o
                0x00000000000251ff                log_.c.448d6917
 .debug_info    0x00000000000255cc      0x2ad /tmp/cc7IqFkN.debug.temp.o
                0x00000000000255cc                cmac.c.ea2eea15
 .debug_info    0x0000000000025879      0x44c /tmp/cc2bwXrf.debug.temp.o
                0x0000000000025879                lorawan_aes.c.66b1dc53
 .debug_info    0x0000000000025cc5      0x812 /tmp/ccS0FgKV.debug.temp.o
                0x0000000000025cc5                soft_se.c.c30b92ed
 .debug_info    0x00000000000264d7     0x35e6 /tmp/ccW0RuGS.debug.temp.o
                0x00000000000264d7                LmHandler.c.13a3add6
 .debug_info    0x0000000000029abd      0x1c3 /tmp/ccYRGota.debug.temp.o
                0x0000000000029abd                NvmDataMgmt.c.b3c11ccb
 .debug_info    0x0000000000029c80     0x215c /tmp/cchfKlvi.debug.temp.o
                0x0000000000029c80                LmhpCompliance.c.57345f95
 .debug_info    0x000000000002bddc     0x5578 /tmp/ccwatcr1.debug.temp.o
                0x000000000002bddc                LoRaMac.c.dc1759f6
 .debug_info    0x0000000000031354      0x689 /tmp/cc8WDkSq.debug.temp.o
                0x0000000000031354                LoRaMacAdr.c.c454c6d6
 .debug_info    0x00000000000319dd     0x1c9a /tmp/ccwfa9rK.debug.temp.o
                0x00000000000319dd                LoRaMacClassB.c.6480f3d2
 .debug_info    0x0000000000033677      0x616 /tmp/ccOP75ae.debug.temp.o
                0x0000000000033677                LoRaMacCommands.c.e1792c92
 .debug_info    0x0000000000033c8d      0x9f8 /tmp/ccGL35ux.debug.temp.o
                0x0000000000033c8d                LoRaMacConfirmQueue.c.133c099e
 .debug_info    0x0000000000034685     0x11f6 /tmp/ccYatsSs.debug.temp.o
                0x0000000000034685                LoRaMacCrypto.c.8537cace
 .debug_info    0x000000000003587b      0x46a /tmp/ccycYC5i.debug.temp.o
                0x000000000003587b                LoRaMacParser.c.43f2d6b7
 .debug_info    0x0000000000035ce5      0x541 /tmp/ccsTJXcn.debug.temp.o
                0x0000000000035ce5                LoRaMacSerializer.c.9762af6d
 .debug_info    0x0000000000036226     0x1988 /tmp/ccASDsCr.debug.temp.o
                0x0000000000036226                Region.c.6aba488d
 .debug_info    0x0000000000037bae     0x257c /tmp/cc0QnPAE.debug.temp.o
                0x0000000000037bae                RegionAS923.c.23c5fe48
 .debug_info    0x000000000003a12a     0x2598 /tmp/ccqWapzz.debug.temp.o
                0x000000000003a12a                RegionAU915.c.de8b701c
 .debug_info    0x000000000003c6c2      0x2b8 /tmp/ccIPOR02.debug.temp.o
                0x000000000003c6c2                RegionBaseUS.c.467f8f97
 .debug_info    0x000000000003c97a     0x2742 /tmp/ccuKgu3r.debug.temp.o
                0x000000000003c97a                RegionCN470.c.e51e75c8
 .debug_info    0x000000000003f0bc      0x42e /tmp/ccS4GNtn.debug.temp.o
                0x000000000003f0bc                RegionCN470A20.c.2c123841
 .debug_info    0x000000000003f4ea      0x3ea /tmp/ccL8cbEX.debug.temp.o
                0x000000000003f4ea                RegionCN470A26.c.2073bedb
 .debug_info    0x000000000003f8d4      0x42e /tmp/ccjEhC0X.debug.temp.o
                0x000000000003f8d4                RegionCN470B20.c.dcacb126
 .debug_info    0x000000000003fd02      0x3d2 /tmp/ccSWKV5l.debug.temp.o
                0x000000000003fd02                RegionCN470B26.c.657de67d
 .debug_info    0x00000000000400d4     0x2533 /tmp/ccBbGa7S.debug.temp.o
                0x00000000000400d4                RegionCN779.c.5f4eab28
 .debug_info    0x0000000000042607     0x1d2d /tmp/cc0o2vl9.debug.temp.o
                0x0000000000042607                RegionCommon.c.18a31f5d
 .debug_info    0x0000000000044334     0x2533 /tmp/ccI6Ji0y.debug.temp.o
                0x0000000000044334                RegionEU433.c.5e429dae
 .debug_info    0x0000000000046867     0x2577 /tmp/ccWgRVfz.debug.temp.o
                0x0000000000046867                RegionEU868.c.1b6f80b3
 .debug_info    0x0000000000048dde     0x2561 /tmp/ccZmoG4K.debug.temp.o
                0x0000000000048dde                RegionIN865.c.f1a14064
 .debug_info    0x000000000004b33f     0x256a /tmp/cc9GxKl9.debug.temp.o
                0x000000000004b33f                RegionKR920.c.5f1f0573
 .debug_info    0x000000000004d8a9     0x2531 /tmp/ccGkZ2CD.debug.temp.o
                0x000000000004d8a9                RegionRU864.c.e570133b
 .debug_info    0x000000000004fdda     0x25c0 /tmp/ccZJSQoQ.debug.temp.o
                0x000000000004fdda                RegionUS915.c.205913c8
 .debug_info    0x000000000005239a      0x2e0 /tmp/ccXaRzWs.debug.temp.o
                0x000000000005239a                utilities.c.bb4ac6cd
 .debug_info    0x000000000005267a      0x723 /tmp/ccDWjkjd.debug.temp.o
                0x000000000005267a                lwgps.c.0fc07cb6
 .debug_info    0x0000000000052d9d      0x51f /tmp/ccQ0LfzP.debug.temp.o
                0x0000000000052d9d                queue.c.9e7c76db
 .debug_info    0x00000000000532bc      0x7ba /tmp/cchl7RkN.debug.temp.o
                0x00000000000532bc                settings.c.fee2aaf0
 .debug_info    0x0000000000053a76     0x21a8 /tmp/cc6Y0I9l.debug.temp.o
                0x0000000000053a76                radio.c.55daf109
 .debug_info    0x0000000000055c1e     0x1b53 /tmp/ccQYZVmC.debug.temp.o
                0x0000000000055c1e                radio_driver.c.0dd6583a
 .debug_info    0x0000000000057771      0xbea /tmp/ccEsXZVT.debug.temp.o
                0x0000000000057771                radio_fw.c.d03170e1
 .debug_info    0x000000000005835b      0x1cc /tmp/cc5W3YOV.debug.temp.o
                0x000000000005835b                radio_board_if.c.454252d5
 .debug_info    0x0000000000058527      0xe0a /tmp/ccxQGTac.debug.temp.o
                0x0000000000058527                bsp.c.810c808d
 .debug_info    0x0000000000059331       0xe4 /tmp/ccX9xCKb.debug.temp.o
                0x0000000000059331                bsp_battery.c.316bdfd8
 .debug_info    0x0000000000059415      0x882 /tmp/ccmk0lFw.debug.temp.o
                0x0000000000059415                bsp_clocks.c.a574245a
 .debug_info    0x0000000000059c97      0x428 /tmp/ccIySCdd.debug.temp.o
                0x0000000000059c97                bsp_flash.c.70f11ab7
 .debug_info    0x000000000005a0bf      0x571 /tmp/ccpSuKeh.debug.temp.o
                0x000000000005a0bf                bsp_gpio.c.29f73026
 .debug_info    0x000000000005a630      0x51c /tmp/ccHphSDI.debug.temp.o
                0x000000000005a630                bsp_low_power.c.673edb77
 .debug_info    0x000000000005ab4c      0xc68 /tmp/ccitYPK1.debug.temp.o
                0x000000000005ab4c                bsp_rtc.c.3bb4d8de
 .debug_info    0x000000000005b7b4      0x691 /tmp/cccPgEab.debug.temp.o
                0x000000000005b7b4                bsp_subghz.c.17a6ee94
 .debug_info    0x000000000005be45     0x10c0 /tmp/ccP34yzr.debug.temp.o
                0x000000000005be45                bsp_uart.c.88708c46
 .debug_info    0x000000000005cf05      0x55e /tmp/cc9MAM8O.debug.temp.o
                0x000000000005cf05                stm32wlxx_LoRa_E5_mini_radio.c.3efbcfbe
 .debug_info    0x000000000005d463      0x40a /tmp/cc0EHvkk.debug.temp.o
                0x000000000005d463                system_stm32wlxx.c.3f702d26
 .debug_info    0x000000000005d86d      0xb5c /tmp/ccSDVopy.debug.temp.o
                0x000000000005d86d                stm32wlxx_hal_cortex.c.dcee74d8
 .debug_info    0x000000000005e3c9      0x6ce /tmp/cc49PgLx.debug.temp.o
                0x000000000005e3c9                stm32wlxx_hal_flash_ex.c.1c24db45
 .debug_info    0x000000000005ea97      0x525 /tmp/ccVIWmL4.debug.temp.o
                0x000000000005ea97                stm32wlxx_hal_flash.c.d28c6de3
 .debug_info    0x000000000005efbc      0x620 /tmp/ccaxJaIv.debug.temp.o
                0x000000000005efbc                stm32wlxx_hal_gpio.c.8b5815e4
 .debug_info    0x000000000005f5dc      0xa6f /tmp/cc2OSRjd.debug.temp.o
                0x000000000005f5dc                stm32wlxx_hal_pwr_ex.c.8e204ef5
 .debug_info    0x000000000006004b      0x738 /tmp/cclhSWJ0.debug.temp.o
                0x000000000006004b                stm32wlxx_hal_pwr.c.eda4f1d7
 .debug_info    0x0000000000060783     0x11f4 /tmp/cciHJXIo.debug.temp.o
                0x0000000000060783                stm32wlxx_hal_rtc_ex.c.6372ad5b
 .debug_info    0x0000000000061977      0xdd2 /tmp/ccvEw285.debug.temp.o
                0x0000000000061977                stm32wlxx_hal_rtc.c.77a57d91
 .debug_info    0x0000000000062749      0xfd2 /tmp/cc4LIk0Y.debug.temp.o
                0x0000000000062749                stm32wlxx_hal_subghz.c.bf97c46c
 .debug_info    0x000000000006371b      0xbc8 /tmp/ccykgIKk.debug.temp.o
                0x000000000006371b                stm32wlxx_hal.c.07d419b4
 .debug_info    0x00000000000642e3      0x6b5 /tmp/ccMcs8w0.debug.temp.o
                0x00000000000642e3                stm32wlxx_ll_gpio.c.f908c82f
 .debug_info    0x0000000000064998      0x66f /tmp/ccEuRAJG.debug.temp.o
                0x0000000000064998                stm32wlxx_ll_lpuart.c.53c49960
 .debug_info    0x0000000000065007      0x950 /tmp/ccDl5sW9.debug.temp.o
                0x0000000000065007                stm32wlxx_ll_rcc.c.db5e2429
 .debug_info    0x0000000000065957      0x767 /tmp/cc9ZO3pm.debug.temp.o
                0x0000000000065957                stm32wlxx_ll_usart.c.27444a60
 .debug_info    0x00000000000660be      0xb34 /tmp/ccEEVYed.debug.temp.o
                0x00000000000660be                stm32wlxx_ll_utils.c.55f853da
 .debug_info    0x0000000000066bf2      0xd88 /tmp/ccco4HDN.debug.temp.o
                0x0000000000066bf2                bsp_adc.c.0c23ea6e
 .debug_info    0x000000000006797a      0xa2b /tmp/ccTn9IA9.debug.temp.o
                0x000000000006797a                bsp_stm32wlxx_it.c.779d2ae8
 .debug_info    0x00000000000683a5     0x1267 /tmp/ccsoTJvH.debug.temp.o
                0x00000000000683a5                stm32wlxx_hal_adc.c.5f526133
 .debug_info    0x000000000006960c      0x7cc /tmp/ccXBoalU.debug.temp.o
                0x000000000006960c                stm32wlxx_hal_dma.c.e2836560
 .debug_info    0x0000000000069dd8      0xed8 /tmp/ccUegmPF.debug.temp.o
                0x0000000000069dd8                stm32wlxx_hal_rcc.c.154718f0
 .debug_info    0x000000000006acb0       0x22 out/libbsp_loko_app.a(startup_stm32wle5jcix.s.obj)

.debug_abbrev   0x0000000000000000     0xa2ae
 .debug_abbrev  0x0000000000000000      0x384 /tmp/loko_app.yhd4Rs.ltrans0.ltrans.o
 .debug_abbrev  0x0000000000000384      0x389 /tmp/loko_app.yhd4Rs.ltrans1.ltrans.o
 .debug_abbrev  0x000000000000070d      0x299 /tmp/loko_app.yhd4Rs.ltrans2.ltrans.o
 .debug_abbrev  0x00000000000009a6      0x22b /tmp/ccb1mE2G.debug.temp.o
 .debug_abbrev  0x0000000000000bd1       0xd5 /tmp/ccvtyvG1.debug.temp.o
 .debug_abbrev  0x0000000000000ca6      0x1d1 /tmp/ccf4nu6k.debug.temp.o
 .debug_abbrev  0x0000000000000e77      0x1b2 /tmp/ccnVlKlu.debug.temp.o
 .debug_abbrev  0x0000000000001029      0x234 /tmp/ccv9rn0j.debug.temp.o
 .debug_abbrev  0x000000000000125d      0x30a /tmp/cceua3JK.debug.temp.o
 .debug_abbrev  0x0000000000001567      0x20d /tmp/cc8Bwa48.debug.temp.o
 .debug_abbrev  0x0000000000001774       0x90 /tmp/ccGbhCYF.debug.temp.o
 .debug_abbrev  0x0000000000001804       0xac /tmp/ccw5WUJ6.debug.temp.o
 .debug_abbrev  0x00000000000018b0       0xd3 /tmp/ccKx6cKM.debug.temp.o
 .debug_abbrev  0x0000000000001983      0x237 /tmp/cc9VkKNH.debug.temp.o
 .debug_abbrev  0x0000000000001bba      0x132 /tmp/ccqcO2kI.debug.temp.o
 .debug_abbrev  0x0000000000001cec      0x171 /tmp/ccnpwgnj.debug.temp.o
 .debug_abbrev  0x0000000000001e5d      0x177 /tmp/cc9Mtpmj.debug.temp.o
 .debug_abbrev  0x0000000000001fd4      0x127 /tmp/cc7IqFkN.debug.temp.o
 .debug_abbrev  0x00000000000020fb      0x11d /tmp/cc2bwXrf.debug.temp.o
 .debug_abbrev  0x0000000000002218      0x1f8 /tmp/ccS0FgKV.debug.temp.o
 .debug_abbrev  0x0000000000002410      0x2e4 /tmp/ccW0RuGS.debug.temp.o
 .debug_abbrev  0x00000000000026f4       0xb3 /tmp/ccYRGota.debug.temp.o
 .debug_abbrev  0x00000000000027a7      0x2a8 /tmp/cchfKlvi.debug.temp.o
 .debug_abbrev  0x0000000000002a4f      0x37a /tmp/ccwatcr1.debug.temp.o
 .debug_abbrev  0x0000000000002dc9      0x13a /tmp/cc8WDkSq.debug.temp.o
 .debug_abbrev  0x0000000000002f03      0x240 /tmp/ccwfa9rK.debug.temp.o
 .debug_abbrev  0x0000000000003143      0x19b /tmp/ccOP75ae.debug.temp.o
 .debug_abbrev  0x00000000000032de      0x1dd /tmp/ccGL35ux.debug.temp.o
 .debug_abbrev  0x00000000000034bb      0x262 /tmp/ccYatsSs.debug.temp.o
 .debug_abbrev  0x000000000000371d      0x1a1 /tmp/ccycYC5i.debug.temp.o
 .debug_abbrev  0x00000000000038be      0x1a1 /tmp/ccsTJXcn.debug.temp.o
 .debug_abbrev  0x0000000000003a5f      0x1c5 /tmp/ccASDsCr.debug.temp.o
 .debug_abbrev  0x0000000000003c24      0x2cc /tmp/cc0QnPAE.debug.temp.o
 .debug_abbrev  0x0000000000003ef0      0x2d3 /tmp/ccqWapzz.debug.temp.o
 .debug_abbrev  0x00000000000041c3       0xd5 /tmp/ccIPOR02.debug.temp.o
 .debug_abbrev  0x0000000000004298      0x2d7 /tmp/ccuKgu3r.debug.temp.o
 .debug_abbrev  0x000000000000456f      0x144 /tmp/ccS4GNtn.debug.temp.o
 .debug_abbrev  0x00000000000046b3      0x13d /tmp/ccL8cbEX.debug.temp.o
 .debug_abbrev  0x00000000000047f0      0x144 /tmp/ccjEhC0X.debug.temp.o
 .debug_abbrev  0x0000000000004934      0x12e /tmp/ccSWKV5l.debug.temp.o
 .debug_abbrev  0x0000000000004a62      0x2cc /tmp/ccBbGa7S.debug.temp.o
 .debug_abbrev  0x0000000000004d2e      0x2c1 /tmp/cc0o2vl9.debug.temp.o
 .debug_abbrev  0x0000000000004fef      0x2cc /tmp/ccI6Ji0y.debug.temp.o
 .debug_abbrev  0x00000000000052bb      0x2cc /tmp/ccWgRVfz.debug.temp.o
 .debug_abbrev  0x0000000000005587      0x2cc /tmp/ccZmoG4K.debug.temp.o
 .debug_abbrev  0x0000000000005853      0x2cc /tmp/cc9GxKl9.debug.temp.o
 .debug_abbrev  0x0000000000005b1f      0x2cc /tmp/ccGkZ2CD.debug.temp.o
 .debug_abbrev  0x0000000000005deb      0x2d3 /tmp/ccZJSQoQ.debug.temp.o
 .debug_abbrev  0x00000000000060be       0xe3 /tmp/ccXaRzWs.debug.temp.o
 .debug_abbrev  0x00000000000061a1      0x17c /tmp/ccDWjkjd.debug.temp.o
 .debug_abbrev  0x000000000000631d       0xe9 /tmp/ccQ0LfzP.debug.temp.o
 .debug_abbrev  0x0000000000006406      0x1d2 /tmp/cchl7RkN.debug.temp.o
 .debug_abbrev  0x00000000000065d8      0x268 /tmp/cc6Y0I9l.debug.temp.o
 .debug_abbrev  0x0000000000006840      0x289 /tmp/ccQYZVmC.debug.temp.o
 .debug_abbrev  0x0000000000006ac9      0x1a2 /tmp/ccEsXZVT.debug.temp.o
 .debug_abbrev  0x0000000000006c6b       0xb2 /tmp/cc5W3YOV.debug.temp.o
 .debug_abbrev  0x0000000000006d1d      0x292 /tmp/ccxQGTac.debug.temp.o
 .debug_abbrev  0x0000000000006faf       0x91 /tmp/ccX9xCKb.debug.temp.o
 .debug_abbrev  0x0000000000007040      0x1d1 /tmp/ccmk0lFw.debug.temp.o
 .debug_abbrev  0x0000000000007211      0x146 /tmp/ccIySCdd.debug.temp.o
 .debug_abbrev  0x0000000000007357      0x1a0 /tmp/ccpSuKeh.debug.temp.o
 .debug_abbrev  0x00000000000074f7      0x153 /tmp/ccHphSDI.debug.temp.o
 .debug_abbrev  0x000000000000764a      0x20d /tmp/ccitYPK1.debug.temp.o
 .debug_abbrev  0x0000000000007857      0x196 /tmp/cccPgEab.debug.temp.o
 .debug_abbrev  0x00000000000079ed      0x1e6 /tmp/ccP34yzr.debug.temp.o
 .debug_abbrev  0x0000000000007bd3      0x197 /tmp/cc9MAM8O.debug.temp.o
 .debug_abbrev  0x0000000000007d6a      0x119 /tmp/cc0EHvkk.debug.temp.o
 .debug_abbrev  0x0000000000007e83      0x21f /tmp/ccSDVopy.debug.temp.o
 .debug_abbrev  0x00000000000080a2      0x1e1 /tmp/cc49PgLx.debug.temp.o
 .debug_abbrev  0x0000000000008283      0x1d9 /tmp/ccVIWmL4.debug.temp.o
 .debug_abbrev  0x000000000000845c      0x1a2 /tmp/ccaxJaIv.debug.temp.o
 .debug_abbrev  0x00000000000085fe      0x205 /tmp/cc2OSRjd.debug.temp.o
 .debug_abbrev  0x0000000000008803      0x164 /tmp/cclhSWJ0.debug.temp.o
 .debug_abbrev  0x0000000000008967      0x197 /tmp/cciHJXIo.debug.temp.o
 .debug_abbrev  0x0000000000008afe      0x191 /tmp/ccvEw285.debug.temp.o
 .debug_abbrev  0x0000000000008c8f      0x205 /tmp/cc4LIk0Y.debug.temp.o
 .debug_abbrev  0x0000000000008e94      0x210 /tmp/ccykgIKk.debug.temp.o
 .debug_abbrev  0x00000000000090a4      0x1c4 /tmp/ccMcs8w0.debug.temp.o
 .debug_abbrev  0x0000000000009268      0x193 /tmp/ccEuRAJG.debug.temp.o
 .debug_abbrev  0x00000000000093fb      0x1cc /tmp/ccDl5sW9.debug.temp.o
 .debug_abbrev  0x00000000000095c7      0x1b7 /tmp/cc9ZO3pm.debug.temp.o
 .debug_abbrev  0x000000000000977e      0x1e8 /tmp/ccEEVYed.debug.temp.o
 .debug_abbrev  0x0000000000009966      0x233 /tmp/ccco4HDN.debug.temp.o
 .debug_abbrev  0x0000000000009b99      0x18b /tmp/ccTn9IA9.debug.temp.o
 .debug_abbrev  0x0000000000009d24      0x1b7 /tmp/ccsoTJvH.debug.temp.o
 .debug_abbrev  0x0000000000009edb      0x1a1 /tmp/ccXBoalU.debug.temp.o
 .debug_abbrev  0x000000000000a07c      0x220 /tmp/ccUegmPF.debug.temp.o
 .debug_abbrev  0x000000000000a29c       0x12 out/libbsp_loko_app.a(startup_stm32wle5jcix.s.obj)

.debug_loc      0x0000000000000000    0x1f5e5
 .debug_loc     0x0000000000000000     0xdc8e /tmp/loko_app.yhd4Rs.ltrans0.ltrans.o
 .debug_loc     0x000000000000dc8e     0xabe8 /tmp/loko_app.yhd4Rs.ltrans1.ltrans.o
 .debug_loc     0x0000000000018876     0x6d6f /tmp/loko_app.yhd4Rs.ltrans2.ltrans.o

.debug_aranges  0x0000000000000000      0xd08
 .debug_aranges
                0x0000000000000000      0x440 /tmp/loko_app.yhd4Rs.ltrans0.ltrans.o
 .debug_aranges
                0x0000000000000440      0x648 /tmp/loko_app.yhd4Rs.ltrans1.ltrans.o
 .debug_aranges
                0x0000000000000a88      0x258 /tmp/loko_app.yhd4Rs.ltrans2.ltrans.o
 .debug_aranges
                0x0000000000000ce0       0x28 out/libbsp_loko_app.a(startup_stm32wle5jcix.s.obj)

.debug_ranges   0x0000000000000000     0x6190
 .debug_ranges  0x0000000000000000     0x3280 /tmp/loko_app.yhd4Rs.ltrans0.ltrans.o
 .debug_ranges  0x0000000000003280     0x1ff0 /tmp/loko_app.yhd4Rs.ltrans1.ltrans.o
 .debug_ranges  0x0000000000005270      0xf00 /tmp/loko_app.yhd4Rs.ltrans2.ltrans.o
 .debug_ranges  0x0000000000006170       0x20 out/libbsp_loko_app.a(startup_stm32wle5jcix.s.obj)

.debug_line     0x0000000000000000    0x230c1
 .debug_line    0x0000000000000000     0xb220 /tmp/loko_app.yhd4Rs.ltrans0.ltrans.o
 .debug_line    0x000000000000b220     0x8a5c /tmp/loko_app.yhd4Rs.ltrans1.ltrans.o
 .debug_line    0x0000000000013c7c     0x3d72 /tmp/loko_app.yhd4Rs.ltrans2.ltrans.o
 .debug_line    0x00000000000179ee      0x2bc /tmp/ccb1mE2G.debug.temp.o
 .debug_line    0x0000000000017caa      0x195 /tmp/ccvtyvG1.debug.temp.o
 .debug_line    0x0000000000017e3f      0x15a /tmp/ccf4nu6k.debug.temp.o
 .debug_line    0x0000000000017f99      0x153 /tmp/ccnVlKlu.debug.temp.o
 .debug_line    0x00000000000180ec      0x240 /tmp/ccv9rn0j.debug.temp.o
 .debug_line    0x000000000001832c      0x3bd /tmp/cceua3JK.debug.temp.o
 .debug_line    0x00000000000186e9      0x210 /tmp/cc8Bwa48.debug.temp.o
 .debug_line    0x00000000000188f9      0x145 /tmp/ccGbhCYF.debug.temp.o
 .debug_line    0x0000000000018a3e      0x176 /tmp/ccw5WUJ6.debug.temp.o
 .debug_line    0x0000000000018bb4      0x127 /tmp/ccKx6cKM.debug.temp.o
 .debug_line    0x0000000000018cdb      0x2c1 /tmp/cc9VkKNH.debug.temp.o
 .debug_line    0x0000000000018f9c      0x17b /tmp/ccqcO2kI.debug.temp.o
 .debug_line    0x0000000000019117      0x1d7 /tmp/ccnpwgnj.debug.temp.o
 .debug_line    0x00000000000192ee      0x168 /tmp/cc9Mtpmj.debug.temp.o
 .debug_line    0x0000000000019456      0x127 /tmp/cc7IqFkN.debug.temp.o
 .debug_line    0x000000000001957d      0x124 /tmp/cc2bwXrf.debug.temp.o
 .debug_line    0x00000000000196a1      0x1d8 /tmp/ccS0FgKV.debug.temp.o
 .debug_line    0x0000000000019879      0x40c /tmp/ccW0RuGS.debug.temp.o
 .debug_line    0x0000000000019c85      0x17e /tmp/ccYRGota.debug.temp.o
 .debug_line    0x0000000000019e03      0x3e5 /tmp/cchfKlvi.debug.temp.o
 .debug_line    0x000000000001a1e8      0x4bd /tmp/ccwatcr1.debug.temp.o
 .debug_line    0x000000000001a6a5      0x222 /tmp/cc8WDkSq.debug.temp.o
 .debug_line    0x000000000001a8c7      0x2d7 /tmp/ccwfa9rK.debug.temp.o
 .debug_line    0x000000000001ab9e      0x190 /tmp/ccOP75ae.debug.temp.o
 .debug_line    0x000000000001ad2e      0x1e2 /tmp/ccGL35ux.debug.temp.o
 .debug_line    0x000000000001af10      0x211 /tmp/ccYatsSs.debug.temp.o
 .debug_line    0x000000000001b121      0x156 /tmp/ccycYC5i.debug.temp.o
 .debug_line    0x000000000001b277      0x15e /tmp/ccsTJXcn.debug.temp.o
 .debug_line    0x000000000001b3d5      0x320 /tmp/ccASDsCr.debug.temp.o
 .debug_line    0x000000000001b6f5      0x307 /tmp/cc0QnPAE.debug.temp.o
 .debug_line    0x000000000001b9fc      0x307 /tmp/ccqWapzz.debug.temp.o
 .debug_line    0x000000000001bd03      0x16f /tmp/ccIPOR02.debug.temp.o
 .debug_line    0x000000000001be72      0x307 /tmp/ccuKgu3r.debug.temp.o
 .debug_line    0x000000000001c179      0x17d /tmp/ccS4GNtn.debug.temp.o
 .debug_line    0x000000000001c2f6      0x17d /tmp/ccL8cbEX.debug.temp.o
 .debug_line    0x000000000001c473      0x17d /tmp/ccjEhC0X.debug.temp.o
 .debug_line    0x000000000001c5f0      0x17d /tmp/ccSWKV5l.debug.temp.o
 .debug_line    0x000000000001c76d      0x307 /tmp/ccBbGa7S.debug.temp.o
 .debug_line    0x000000000001ca74      0x30c /tmp/cc0o2vl9.debug.temp.o
 .debug_line    0x000000000001cd80      0x307 /tmp/ccI6Ji0y.debug.temp.o
 .debug_line    0x000000000001d087      0x307 /tmp/ccWgRVfz.debug.temp.o
 .debug_line    0x000000000001d38e      0x307 /tmp/ccZmoG4K.debug.temp.o
 .debug_line    0x000000000001d695      0x307 /tmp/cc9GxKl9.debug.temp.o
 .debug_line    0x000000000001d99c      0x307 /tmp/ccGkZ2CD.debug.temp.o
 .debug_line    0x000000000001dca3      0x307 /tmp/ccZJSQoQ.debug.temp.o
 .debug_line    0x000000000001dfaa      0x114 /tmp/ccXaRzWs.debug.temp.o
 .debug_line    0x000000000001e0be      0x164 /tmp/ccDWjkjd.debug.temp.o
 .debug_line    0x000000000001e222      0x151 /tmp/ccQ0LfzP.debug.temp.o
 .debug_line    0x000000000001e373      0x18a /tmp/cchl7RkN.debug.temp.o
 .debug_line    0x000000000001e4fd      0x24d /tmp/cc6Y0I9l.debug.temp.o
 .debug_line    0x000000000001e74a      0x207 /tmp/ccQYZVmC.debug.temp.o
 .debug_line    0x000000000001e951      0x20e /tmp/ccEsXZVT.debug.temp.o
 .debug_line    0x000000000001eb5f      0x1c5 /tmp/cc5W3YOV.debug.temp.o
 .debug_line    0x000000000001ed24      0x2f4 /tmp/ccxQGTac.debug.temp.o
 .debug_line    0x000000000001f018       0xff /tmp/ccX9xCKb.debug.temp.o
 .debug_line    0x000000000001f117      0x22a /tmp/ccmk0lFw.debug.temp.o
 .debug_line    0x000000000001f341      0x205 /tmp/ccIySCdd.debug.temp.o
 .debug_line    0x000000000001f546      0x1eb /tmp/ccpSuKeh.debug.temp.o
 .debug_line    0x000000000001f731      0x23f /tmp/ccHphSDI.debug.temp.o
 .debug_line    0x000000000001f970      0x26a /tmp/ccitYPK1.debug.temp.o
 .debug_line    0x000000000001fbda      0x1ef /tmp/cccPgEab.debug.temp.o
 .debug_line    0x000000000001fdc9      0x2be /tmp/ccP34yzr.debug.temp.o
 .debug_line    0x0000000000020087      0x20a /tmp/cc9MAM8O.debug.temp.o
 .debug_line    0x0000000000020291      0x1c4 /tmp/cc0EHvkk.debug.temp.o
 .debug_line    0x0000000000020455      0x229 /tmp/ccSDVopy.debug.temp.o
 .debug_line    0x000000000002067e      0x1f2 /tmp/cc49PgLx.debug.temp.o
 .debug_line    0x0000000000020870      0x230 /tmp/ccVIWmL4.debug.temp.o
 .debug_line    0x0000000000020aa0      0x1ed /tmp/ccaxJaIv.debug.temp.o
 .debug_line    0x0000000000020c8d      0x274 /tmp/cc2OSRjd.debug.temp.o
 .debug_line    0x0000000000020f01      0x242 /tmp/cclhSWJ0.debug.temp.o
 .debug_line    0x0000000000021143      0x208 /tmp/cciHJXIo.debug.temp.o
 .debug_line    0x000000000002134b      0x1eb /tmp/ccvEw285.debug.temp.o
 .debug_line    0x0000000000021536      0x259 /tmp/cc4LIk0Y.debug.temp.o
 .debug_line    0x000000000002178f      0x268 /tmp/ccykgIKk.debug.temp.o
 .debug_line    0x00000000000219f7      0x23a /tmp/ccMcs8w0.debug.temp.o
 .debug_line    0x0000000000021c31      0x1fd /tmp/ccEuRAJG.debug.temp.o
 .debug_line    0x0000000000021e2e      0x1f7 /tmp/ccDl5sW9.debug.temp.o
 .debug_line    0x0000000000022025      0x1fb /tmp/cc9ZO3pm.debug.temp.o
 .debug_line    0x0000000000022220      0x280 /tmp/ccEEVYed.debug.temp.o
 .debug_line    0x00000000000224a0      0x2ab /tmp/ccco4HDN.debug.temp.o
 .debug_line    0x000000000002274b      0x20d /tmp/ccTn9IA9.debug.temp.o
 .debug_line    0x0000000000022958      0x27e /tmp/ccsoTJvH.debug.temp.o
 .debug_line    0x0000000000022bd6      0x1eb /tmp/ccXBoalU.debug.temp.o
 .debug_line    0x0000000000022dc1      0x258 /tmp/ccUegmPF.debug.temp.o
 .debug_line    0x0000000000023019       0xa8 out/libbsp_loko_app.a(startup_stm32wle5jcix.s.obj)

.debug_str      0x0000000000000000    0x1762c
 .debug_str     0x0000000000000000      0xb0a /tmp/loko_app.yhd4Rs.ltrans0.ltrans.o
                                        0xb50 (size before relaxing)
 .debug_str     0x0000000000000b0a      0x236 /tmp/loko_app.yhd4Rs.ltrans1.ltrans.o
                                        0x5ca (size before relaxing)
 .debug_str     0x0000000000000d40      0x2eb /tmp/loko_app.yhd4Rs.ltrans2.ltrans.o
                                        0xa4b (size before relaxing)
 .debug_str     0x000000000000102b      0xe9d /tmp/ccb1mE2G.debug.temp.o
                                       0x1097 (size before relaxing)
 .debug_str     0x0000000000001ec8       0x88 /tmp/ccvtyvG1.debug.temp.o
                                        0x3d8 (size before relaxing)
 .debug_str     0x0000000000001f50      0x273 /tmp/ccf4nu6k.debug.temp.o
                                        0x49a (size before relaxing)
 .debug_str     0x00000000000021c3      0x3ce /tmp/ccnVlKlu.debug.temp.o
                                        0x679 (size before relaxing)
 .debug_str     0x0000000000002591      0x5bc /tmp/ccv9rn0j.debug.temp.o
                                        0xa7a (size before relaxing)
 .debug_str     0x0000000000002b4d      0xd4e /tmp/cceua3JK.debug.temp.o
                                       0x1234 (size before relaxing)
 .debug_str     0x000000000000389b      0xaf1 /tmp/cc8Bwa48.debug.temp.o
                                        0xfef (size before relaxing)
 .debug_str     0x000000000000438c       0x8e /tmp/ccGbhCYF.debug.temp.o
                                        0x263 (size before relaxing)
 .debug_str     0x000000000000441a       0xd8 /tmp/ccw5WUJ6.debug.temp.o
                                        0x2bb (size before relaxing)
 .debug_str     0x00000000000044f2      0x1cf /tmp/ccKx6cKM.debug.temp.o
                                        0x40d (size before relaxing)
 .debug_str     0x00000000000046c1      0x34a /tmp/cc9VkKNH.debug.temp.o
                                        0x85b (size before relaxing)
 .debug_str     0x0000000000004a0b       0x7b /tmp/ccqcO2kI.debug.temp.o
                                        0x2de (size before relaxing)
 .debug_str     0x0000000000004a86      0x160 /tmp/ccnpwgnj.debug.temp.o
                                        0x4f2 (size before relaxing)
 .debug_str     0x0000000000004be6       0xd5 /tmp/cc9Mtpmj.debug.temp.o
                                        0x3de (size before relaxing)
 .debug_str     0x0000000000004cbb       0xca /tmp/cc7IqFkN.debug.temp.o
                                        0x2be (size before relaxing)
 .debug_str     0x0000000000004d85      0x15e /tmp/cc2bwXrf.debug.temp.o
                                        0x34a (size before relaxing)
 .debug_str     0x0000000000004ee3      0x524 /tmp/ccS0FgKV.debug.temp.o
                                        0x891 (size before relaxing)
 .debug_str     0x0000000000005407     0x2928 /tmp/ccW0RuGS.debug.temp.o
                                       0x3cc6 (size before relaxing)
 .debug_str     0x0000000000007d2f       0xaa /tmp/ccYRGota.debug.temp.o
                                        0x643 (size before relaxing)
 .debug_str     0x0000000000007dd9      0x537 /tmp/cchfKlvi.debug.temp.o
                                       0x284a (size before relaxing)
 .debug_str     0x0000000000008310     0x1fd8 /tmp/ccwatcr1.debug.temp.o
                                       0x5b70 (size before relaxing)
 .debug_str     0x000000000000a2e8       0x92 /tmp/cc8WDkSq.debug.temp.o
                                        0xb42 (size before relaxing)
 .debug_str     0x000000000000a37a      0x453 /tmp/ccwfa9rK.debug.temp.o
                                       0x2641 (size before relaxing)
 .debug_str     0x000000000000a7cd      0x30b /tmp/ccOP75ae.debug.temp.o
                                        0x915 (size before relaxing)
 .debug_str     0x000000000000aad8      0x2f5 /tmp/ccGL35ux.debug.temp.o
                                        0xd51 (size before relaxing)
 .debug_str     0x000000000000adcd      0x39e /tmp/ccYatsSs.debug.temp.o
                                       0x112f (size before relaxing)
 .debug_str     0x000000000000b16b       0x97 /tmp/ccycYC5i.debug.temp.o
                                        0x4d9 (size before relaxing)
 .debug_str     0x000000000000b202       0xd4 /tmp/ccsTJXcn.debug.temp.o
                                        0x586 (size before relaxing)
 .debug_str     0x000000000000b2d6      0x793 /tmp/ccASDsCr.debug.temp.o
                                       0x1bb2 (size before relaxing)
 .debug_str     0x000000000000ba69      0x621 /tmp/cc0QnPAE.debug.temp.o
                                       0x284b (size before relaxing)
 .debug_str     0x000000000000c08a      0x280 /tmp/ccqWapzz.debug.temp.o
                                       0x289f (size before relaxing)
 .debug_str     0x000000000000c30a      0x19c /tmp/ccIPOR02.debug.temp.o
                                        0x6e8 (size before relaxing)
 .debug_str     0x000000000000c4a6      0x322 /tmp/ccuKgu3r.debug.temp.o
                                       0x29b9 (size before relaxing)
 .debug_str     0x000000000000c7c8      0x1d7 /tmp/ccS4GNtn.debug.temp.o
                                        0x4da (size before relaxing)
 .debug_str     0x000000000000c99f      0x15f /tmp/ccL8cbEX.debug.temp.o
                                        0x4b5 (size before relaxing)
 .debug_str     0x000000000000cafe      0x179 /tmp/ccjEhC0X.debug.temp.o
                                        0x4ed (size before relaxing)
 .debug_str     0x000000000000cc77      0x15f /tmp/ccSWKV5l.debug.temp.o
                                        0x4ae (size before relaxing)
 .debug_str     0x000000000000cdd6      0x237 /tmp/ccBbGa7S.debug.temp.o
                                       0x27c9 (size before relaxing)
 .debug_str     0x000000000000d00d      0x559 /tmp/cc0o2vl9.debug.temp.o
                                       0x1f1d (size before relaxing)
 .debug_str     0x000000000000d566      0x237 /tmp/ccI6Ji0y.debug.temp.o
                                       0x27c9 (size before relaxing)
 .debug_str     0x000000000000d79d      0x237 /tmp/ccWgRVfz.debug.temp.o
                                       0x27ce (size before relaxing)
 .debug_str     0x000000000000d9d4      0x237 /tmp/ccZmoG4K.debug.temp.o
                                       0x27e3 (size before relaxing)
 .debug_str     0x000000000000dc0b      0x25e /tmp/cc9GxKl9.debug.temp.o
                                       0x27e0 (size before relaxing)
 .debug_str     0x000000000000de69      0x237 /tmp/ccGkZ2CD.debug.temp.o
                                       0x27c9 (size before relaxing)
 .debug_str     0x000000000000e0a0      0x245 /tmp/ccZJSQoQ.debug.temp.o
                                       0x2880 (size before relaxing)
 .debug_str     0x000000000000e2e5       0xce /tmp/ccXaRzWs.debug.temp.o
                                        0x2f7 (size before relaxing)
 .debug_str     0x000000000000e3b3      0x106 /tmp/ccDWjkjd.debug.temp.o
                                        0x553 (size before relaxing)
 .debug_str     0x000000000000e4b9      0x166 /tmp/ccQ0LfzP.debug.temp.o
                                        0x3c8 (size before relaxing)
 .debug_str     0x000000000000e61f      0x443 /tmp/cchl7RkN.debug.temp.o
                                        0x93f (size before relaxing)
 .debug_str     0x000000000000ea62      0xb29 /tmp/cc6Y0I9l.debug.temp.o
                                       0x1d8e (size before relaxing)
 .debug_str     0x000000000000f58b     0x1009 /tmp/ccQYZVmC.debug.temp.o
                                       0x1c27 (size before relaxing)
 .debug_str     0x0000000000010594      0x198 /tmp/ccEsXZVT.debug.temp.o
                                        0xe59 (size before relaxing)
 .debug_str     0x000000000001072c      0x131 /tmp/cc5W3YOV.debug.temp.o
                                        0x395 (size before relaxing)
 .debug_str     0x000000000001085d      0x8bb /tmp/ccxQGTac.debug.temp.o
                                        0xcbf (size before relaxing)
 .debug_str     0x0000000000011118       0x91 /tmp/ccX9xCKb.debug.temp.o
                                        0x260 (size before relaxing)
 .debug_str     0x00000000000111a9      0x336 /tmp/ccmk0lFw.debug.temp.o
                                        0x7f6 (size before relaxing)
 .debug_str     0x00000000000114df      0x29a /tmp/ccIySCdd.debug.temp.o
                                        0x582 (size before relaxing)
 .debug_str     0x0000000000011779      0x233 /tmp/ccpSuKeh.debug.temp.o
                                        0x59a (size before relaxing)
 .debug_str     0x00000000000119ac       0x8e /tmp/ccHphSDI.debug.temp.o
                                        0x4b2 (size before relaxing)
 .debug_str     0x0000000000011a3a      0x1ea /tmp/ccitYPK1.debug.temp.o
                                        0xcf8 (size before relaxing)
 .debug_str     0x0000000000011c24       0xd8 /tmp/cccPgEab.debug.temp.o
                                        0x907 (size before relaxing)
 .debug_str     0x0000000000011cfc      0x3ff /tmp/ccP34yzr.debug.temp.o
                                        0xd1b (size before relaxing)
 .debug_str     0x00000000000120fb       0xf4 /tmp/cc9MAM8O.debug.temp.o
                                        0x55b (size before relaxing)
 .debug_str     0x00000000000121ef       0xb1 /tmp/cc0EHvkk.debug.temp.o
                                        0x3f8 (size before relaxing)
 .debug_str     0x00000000000122a0      0x3ad /tmp/ccSDVopy.debug.temp.o
                                        0xb5e (size before relaxing)
 .debug_str     0x000000000001264d      0x399 /tmp/cc49PgLx.debug.temp.o
                                        0x6a8 (size before relaxing)
 .debug_str     0x00000000000129e6      0x1d0 /tmp/ccVIWmL4.debug.temp.o
                                        0x559 (size before relaxing)
 .debug_str     0x0000000000012bb6      0x1b5 /tmp/ccaxJaIv.debug.temp.o
                                        0x4c2 (size before relaxing)
 .debug_str     0x0000000000012d6b      0x6b9 /tmp/cc2OSRjd.debug.temp.o
                                        0xa6f (size before relaxing)
 .debug_str     0x0000000000013424      0x2af /tmp/cclhSWJ0.debug.temp.o
                                        0x612 (size before relaxing)
 .debug_str     0x00000000000136d3      0x856 /tmp/cciHJXIo.debug.temp.o
                                        0xdd8 (size before relaxing)
 .debug_str     0x0000000000013f29      0x25c /tmp/ccvEw285.debug.temp.o
                                        0x908 (size before relaxing)
 .debug_str     0x0000000000014185      0x2f7 /tmp/cc4LIk0Y.debug.temp.o
                                        0xd67 (size before relaxing)
 .debug_str     0x000000000001447c      0x70b /tmp/ccykgIKk.debug.temp.o
                                        0xee5 (size before relaxing)
 .debug_str     0x0000000000014b87      0x139 /tmp/ccMcs8w0.debug.temp.o
                                        0x545 (size before relaxing)
 .debug_str     0x0000000000014cc0      0x123 /tmp/ccEuRAJG.debug.temp.o
                                        0x586 (size before relaxing)
 .debug_str     0x0000000000014de3      0x63e /tmp/ccDl5sW9.debug.temp.o
                                        0xa9b (size before relaxing)
 .debug_str     0x0000000000015421      0x1a9 /tmp/cc9ZO3pm.debug.temp.o
                                        0x648 (size before relaxing)
 .debug_str     0x00000000000155ca      0x34f /tmp/ccEEVYed.debug.temp.o
                                        0x99c (size before relaxing)
 .debug_str     0x0000000000015919      0x5d9 /tmp/ccco4HDN.debug.temp.o
                                        0xb63 (size before relaxing)
 .debug_str     0x0000000000015ef2      0x71e /tmp/ccTn9IA9.debug.temp.o
                                        0xbdd (size before relaxing)
 .debug_str     0x0000000000016610      0x76e /tmp/ccsoTJvH.debug.temp.o
                                        0xf8b (size before relaxing)
 .debug_str     0x0000000000016d7e      0x2c4 /tmp/ccXBoalU.debug.temp.o
                                        0x7e4 (size before relaxing)
 .debug_str     0x0000000000017042      0x573 /tmp/ccUegmPF.debug.temp.o
                                        0xdba (size before relaxing)
 .debug_str     0x00000000000175b5       0x77 out/libbsp_loko_app.a(startup_stm32wle5jcix.s.obj)

.comment        0x0000000000000000       0x49
 .comment       0x0000000000000000       0x49 /tmp/loko_app.yhd4Rs.ltrans0.ltrans.o
                                         0x4a (size before relaxing)
 .comment       0x0000000000000049       0x4a /tmp/loko_app.yhd4Rs.ltrans1.ltrans.o
 .comment       0x0000000000000049       0x4a /tmp/loko_app.yhd4Rs.ltrans2.ltrans.o

.debug_frame    0x0000000000000000     0x48c0
 .debug_frame   0x0000000000000000      0xee0 /tmp/loko_app.yhd4Rs.ltrans0.ltrans.o
 .debug_frame   0x0000000000000ee0     0x1818 /tmp/loko_app.yhd4Rs.ltrans1.ltrans.o
 .debug_frame   0x00000000000026f8      0x854 /tmp/loko_app.yhd4Rs.ltrans2.ltrans.o
 .debug_frame   0x0000000000002f4c       0x40 /usr/gcc-arm-none-eabi-10.3-2021.07/bin/../lib/gcc/arm-none-eabi/10.3.1/../../../../arm-none-eabi/lib/thumb/v7e-m/nofp/libg_nano.a(lib_a-assert.o)
 .debug_frame   0x0000000000002f8c       0x20 /usr/gcc-arm-none-eabi-10.3-2021.07/bin/../lib/gcc/arm-none-eabi/10.3.1/../../../../arm-none-eabi/lib/thumb/v7e-m/nofp/libg_nano.a(lib_a-errno.o)
 .debug_frame   0x0000000000002fac       0x64 /usr/gcc-arm-none-eabi-10.3-2021.07/bin/../lib/gcc/arm-none-eabi/10.3.1/../../../../arm-none-eabi/lib/thumb/v7e-m/nofp/libg_nano.a(lib_a-fprintf.o)
 .debug_frame   0x0000000000003010       0x2c /usr/gcc-arm-none-eabi-10.3-2021.07/bin/../lib/gcc/arm-none-eabi/10.3.1/../../../../arm-none-eabi/lib/thumb/v7e-m/nofp/libg_nano.a(lib_a-init.o)
 .debug_frame   0x000000000000303c       0x20 /usr/gcc-arm-none-eabi-10.3-2021.07/bin/../lib/gcc/arm-none-eabi/10.3.1/../../../../arm-none-eabi/lib/thumb/v7e-m/nofp/libg_nano.a(lib_a-memset.o)
 .debug_frame   0x000000000000305c       0xac /usr/gcc-arm-none-eabi-10.3-2021.07/bin/../lib/gcc/arm-none-eabi/10.3.1/../../../../arm-none-eabi/lib/thumb/v7e-m/nofp/libg_nano.a(lib_a-nano-vfprintf.o)
 .debug_frame   0x0000000000003108       0x94 /usr/gcc-arm-none-eabi-10.3-2021.07/bin/../lib/gcc/arm-none-eabi/10.3.1/../../../../arm-none-eabi/lib/thumb/v7e-m/nofp/libg_nano.a(lib_a-nano-vfprintf_float.o)
 .debug_frame   0x000000000000319c       0x60 /usr/gcc-arm-none-eabi-10.3-2021.07/bin/../lib/gcc/arm-none-eabi/10.3.1/../../../../arm-none-eabi/lib/thumb/v7e-m/nofp/libg_nano.a(lib_a-nano-vfprintf_i.o)
 .debug_frame   0x00000000000031fc       0xe8 /usr/gcc-arm-none-eabi-10.3-2021.07/bin/../lib/gcc/arm-none-eabi/10.3.1/../../../../arm-none-eabi/lib/thumb/v7e-m/nofp/libg_nano.a(lib_a-strtod.o)
 .debug_frame   0x00000000000032e4       0x70 /usr/gcc-arm-none-eabi-10.3-2021.07/bin/../lib/gcc/arm-none-eabi/10.3.1/../../../../arm-none-eabi/lib/thumb/v7e-m/nofp/libg_nano.a(lib_a-strtoll.o)
 .debug_frame   0x0000000000003354       0x6c /usr/gcc-arm-none-eabi-10.3-2021.07/bin/../lib/gcc/arm-none-eabi/10.3.1/../../../../arm-none-eabi/lib/thumb/v7e-m/nofp/libg_nano.a(lib_a-strtoull.o)
 .debug_frame   0x00000000000033c0       0x40 /usr/gcc-arm-none-eabi-10.3-2021.07/bin/../lib/gcc/arm-none-eabi/10.3.1/../../../../arm-none-eabi/lib/thumb/v7e-m/nofp/libg_nano.a(lib_a-wbuf.o)
 .debug_frame   0x0000000000003400       0x2c /usr/gcc-arm-none-eabi-10.3-2021.07/bin/../lib/gcc/arm-none-eabi/10.3.1/../../../../arm-none-eabi/lib/thumb/v7e-m/nofp/libg_nano.a(lib_a-wsetup.o)
 .debug_frame   0x000000000000342c       0x28 /usr/gcc-arm-none-eabi-10.3-2021.07/bin/../lib/gcc/arm-none-eabi/10.3.1/../../../../arm-none-eabi/lib/thumb/v7e-m/nofp/libg_nano.a(lib_a-abort.o)
 .debug_frame   0x0000000000003454       0x6c /usr/gcc-arm-none-eabi-10.3-2021.07/bin/../lib/gcc/arm-none-eabi/10.3.1/../../../../arm-none-eabi/lib/thumb/v7e-m/nofp/libg_nano.a(lib_a-dtoa.o)
 .debug_frame   0x00000000000034c0       0x5c /usr/gcc-arm-none-eabi-10.3-2021.07/bin/../lib/gcc/arm-none-eabi/10.3.1/../../../../arm-none-eabi/lib/thumb/v7e-m/nofp/libg_nano.a(lib_a-fflush.o)
 .debug_frame   0x000000000000351c      0x14c /usr/gcc-arm-none-eabi-10.3-2021.07/bin/../lib/gcc/arm-none-eabi/10.3.1/../../../../arm-none-eabi/lib/thumb/v7e-m/nofp/libg_nano.a(lib_a-findfp.o)
 .debug_frame   0x0000000000003668       0x54 /usr/gcc-arm-none-eabi-10.3-2021.07/bin/../lib/gcc/arm-none-eabi/10.3.1/../../../../arm-none-eabi/lib/thumb/v7e-m/nofp/libg_nano.a(lib_a-fwalk.o)
 .debug_frame   0x00000000000036bc       0x74 /usr/gcc-arm-none-eabi-10.3-2021.07/bin/../lib/gcc/arm-none-eabi/10.3.1/../../../../arm-none-eabi/lib/thumb/v7e-m/nofp/libg_nano.a(lib_a-gdtoa-gethex.o)
 .debug_frame   0x0000000000003730       0x74 /usr/gcc-arm-none-eabi-10.3-2021.07/bin/../lib/gcc/arm-none-eabi/10.3.1/../../../../arm-none-eabi/lib/thumb/v7e-m/nofp/libg_nano.a(lib_a-gdtoa-hexnan.o)
 .debug_frame   0x00000000000037a4       0x20 /usr/gcc-arm-none-eabi-10.3-2021.07/bin/../lib/gcc/arm-none-eabi/10.3.1/../../../../arm-none-eabi/lib/thumb/v7e-m/nofp/libg_nano.a(lib_a-lnumeric.o)
 .debug_frame   0x00000000000037c4       0x48 /usr/gcc-arm-none-eabi-10.3-2021.07/bin/../lib/gcc/arm-none-eabi/10.3.1/../../../../arm-none-eabi/lib/thumb/v7e-m/nofp/libg_nano.a(lib_a-locale.o)
 .debug_frame   0x000000000000380c       0x40 /usr/gcc-arm-none-eabi-10.3-2021.07/bin/../lib/gcc/arm-none-eabi/10.3.1/../../../../arm-none-eabi/lib/thumb/v7e-m/nofp/libg_nano.a(lib_a-localeconv.o)
 .debug_frame   0x000000000000384c       0xb0 /usr/gcc-arm-none-eabi-10.3-2021.07/bin/../lib/gcc/arm-none-eabi/10.3.1/../../../../arm-none-eabi/lib/thumb/v7e-m/nofp/libg_nano.a(lib_a-lock.o)
 .debug_frame   0x00000000000038fc       0x58 /usr/gcc-arm-none-eabi-10.3-2021.07/bin/../lib/gcc/arm-none-eabi/10.3.1/../../../../arm-none-eabi/lib/thumb/v7e-m/nofp/libg_nano.a(lib_a-makebuf.o)
 .debug_frame   0x0000000000003954       0x30 /usr/gcc-arm-none-eabi-10.3-2021.07/bin/../lib/gcc/arm-none-eabi/10.3.1/../../../../arm-none-eabi/lib/thumb/v7e-m/nofp/libg_nano.a(lib_a-malloc.o)
 .debug_frame   0x0000000000003984       0x48 /usr/gcc-arm-none-eabi-10.3-2021.07/bin/../lib/gcc/arm-none-eabi/10.3.1/../../../../arm-none-eabi/lib/thumb/v7e-m/nofp/libg_nano.a(lib_a-mbtowc_r.o)
 .debug_frame   0x00000000000039cc       0x28 /usr/gcc-arm-none-eabi-10.3-2021.07/bin/../lib/gcc/arm-none-eabi/10.3.1/../../../../arm-none-eabi/lib/thumb/v7e-m/nofp/libg_nano.a(lib_a-memcpy-stub.o)
 .debug_frame   0x00000000000039f4       0x28 /usr/gcc-arm-none-eabi-10.3-2021.07/bin/../lib/gcc/arm-none-eabi/10.3.1/../../../../arm-none-eabi/lib/thumb/v7e-m/nofp/libg_nano.a(lib_a-memmove.o)
 .debug_frame   0x0000000000003a1c      0x254 /usr/gcc-arm-none-eabi-10.3-2021.07/bin/../lib/gcc/arm-none-eabi/10.3.1/../../../../arm-none-eabi/lib/thumb/v7e-m/nofp/libg_nano.a(lib_a-mprec.o)
 .debug_frame   0x0000000000003c70       0x2c /usr/gcc-arm-none-eabi-10.3-2021.07/bin/../lib/gcc/arm-none-eabi/10.3.1/../../../../arm-none-eabi/lib/thumb/v7e-m/nofp/libg_nano.a(lib_a-nano-callocr.o)
 .debug_frame   0x0000000000003c9c       0x38 /usr/gcc-arm-none-eabi-10.3-2021.07/bin/../lib/gcc/arm-none-eabi/10.3.1/../../../../arm-none-eabi/lib/thumb/v7e-m/nofp/libg_nano.a(lib_a-nano-freer.o)
 .debug_frame   0x0000000000003cd4       0x4c /usr/gcc-arm-none-eabi-10.3-2021.07/bin/../lib/gcc/arm-none-eabi/10.3.1/../../../../arm-none-eabi/lib/thumb/v7e-m/nofp/libg_nano.a(lib_a-nano-mallocr.o)
 .debug_frame   0x0000000000003d20       0x3c /usr/gcc-arm-none-eabi-10.3-2021.07/bin/../lib/gcc/arm-none-eabi/10.3.1/../../../../arm-none-eabi/lib/thumb/v7e-m/nofp/libg_nano.a(lib_a-nano-reallocr.o)
 .debug_frame   0x0000000000003d5c       0x20 /usr/gcc-arm-none-eabi-10.3-2021.07/bin/../lib/gcc/arm-none-eabi/10.3.1/../../../../arm-none-eabi/lib/thumb/v7e-m/nofp/libg_nano.a(lib_a-s_nan.o)
 .debug_frame   0x0000000000003d7c       0x2c /usr/gcc-arm-none-eabi-10.3-2021.07/bin/../lib/gcc/arm-none-eabi/10.3.1/../../../../arm-none-eabi/lib/thumb/v7e-m/nofp/libg_nano.a(lib_a-sbrkr.o)
 .debug_frame   0x0000000000003da8       0xcc /usr/gcc-arm-none-eabi-10.3-2021.07/bin/../lib/gcc/arm-none-eabi/10.3.1/../../../../arm-none-eabi/lib/thumb/v7e-m/nofp/libg_nano.a(lib_a-signal.o)
 .debug_frame   0x0000000000003e74       0x3c /usr/gcc-arm-none-eabi-10.3-2021.07/bin/../lib/gcc/arm-none-eabi/10.3.1/../../../../arm-none-eabi/lib/thumb/v7e-m/nofp/libg_nano.a(lib_a-signalr.o)
 .debug_frame   0x0000000000003eb0       0x88 /usr/gcc-arm-none-eabi-10.3-2021.07/bin/../lib/gcc/arm-none-eabi/10.3.1/../../../../arm-none-eabi/lib/thumb/v7e-m/nofp/libg_nano.a(lib_a-stdio.o)
 .debug_frame   0x0000000000003f38       0x28 /usr/gcc-arm-none-eabi-10.3-2021.07/bin/../lib/gcc/arm-none-eabi/10.3.1/../../../../arm-none-eabi/lib/thumb/v7e-m/nofp/libg_nano.a(lib_a-strncmp.o)
 .debug_frame   0x0000000000003f60       0x3c /usr/gcc-arm-none-eabi-10.3-2021.07/bin/../lib/gcc/arm-none-eabi/10.3.1/../../../../arm-none-eabi/lib/thumb/v7e-m/nofp/libg_nano.a(lib_a-wctomb_r.o)
 .debug_frame   0x0000000000003f9c       0x2c /usr/gcc-arm-none-eabi-10.3-2021.07/bin/../lib/gcc/arm-none-eabi/10.3.1/../../../../arm-none-eabi/lib/thumb/v7e-m/nofp/libg_nano.a(lib_a-writer.o)
 .debug_frame   0x0000000000003fc8       0x2c /usr/gcc-arm-none-eabi-10.3-2021.07/bin/../lib/gcc/arm-none-eabi/10.3.1/../../../../arm-none-eabi/lib/thumb/v7e-m/nofp/libg_nano.a(lib_a-closer.o)
 .debug_frame   0x0000000000003ff4       0x2c /usr/gcc-arm-none-eabi-10.3-2021.07/bin/../lib/gcc/arm-none-eabi/10.3.1/../../../../arm-none-eabi/lib/thumb/v7e-m/nofp/libg_nano.a(lib_a-fstatr.o)
 .debug_frame   0x0000000000004020       0x2c /usr/gcc-arm-none-eabi-10.3-2021.07/bin/../lib/gcc/arm-none-eabi/10.3.1/../../../../arm-none-eabi/lib/thumb/v7e-m/nofp/libg_nano.a(lib_a-isattyr.o)
 .debug_frame   0x000000000000404c       0x2c /usr/gcc-arm-none-eabi-10.3-2021.07/bin/../lib/gcc/arm-none-eabi/10.3.1/../../../../arm-none-eabi/lib/thumb/v7e-m/nofp/libg_nano.a(lib_a-lseekr.o)
 .debug_frame   0x0000000000004078       0x30 /usr/gcc-arm-none-eabi-10.3-2021.07/bin/../lib/gcc/arm-none-eabi/10.3.1/../../../../arm-none-eabi/lib/thumb/v7e-m/nofp/libg_nano.a(lib_a-mlock.o)
 .debug_frame   0x00000000000040a8       0x20 /usr/gcc-arm-none-eabi-10.3-2021.07/bin/../lib/gcc/arm-none-eabi/10.3.1/../../../../arm-none-eabi/lib/thumb/v7e-m/nofp/libg_nano.a(lib_a-nano-msizer.o)
 .debug_frame   0x00000000000040c8       0x2c /usr/gcc-arm-none-eabi-10.3-2021.07/bin/../lib/gcc/arm-none-eabi/10.3.1/../../../../arm-none-eabi/lib/thumb/v7e-m/nofp/libg_nano.a(lib_a-readr.o)
 .debug_frame   0x00000000000040f4       0x5c /usr/gcc-arm-none-eabi-10.3-2021.07/bin/../lib/gcc/arm-none-eabi/10.3.1/../../../../arm-none-eabi/lib/thumb/v7e-m/nofp/libg_nano.a(lib_a-reent.o)
 .debug_frame   0x0000000000004150       0x28 /usr/gcc-arm-none-eabi-10.3-2021.07/bin/../lib/gcc/arm-none-eabi/10.3.1/../../../../arm-none-eabi/lib/thumb/v7e-m/nofp/libg_nano.a(lib_a-memcmp.o)
 .debug_frame   0x0000000000004178       0x7c /usr/gcc-arm-none-eabi-10.3-2021.07/bin/../lib/gcc/arm-none-eabi/10.3.1/../../../../arm-none-eabi/lib/thumb/v7e-m/nofp/libg_nano.a(lib_a-snprintf.o)
 .debug_frame   0x00000000000041f4       0x2c /usr/gcc-arm-none-eabi-10.3-2021.07/bin/../lib/gcc/arm-none-eabi/10.3.1/../../../../arm-none-eabi/lib/thumb/v7e-m/nofp/libg_nano.a(lib_a-strncasecmp.o)
 .debug_frame   0x0000000000004220       0x4c /usr/gcc-arm-none-eabi-10.3-2021.07/bin/../lib/gcc/arm-none-eabi/10.3.1/../../../../arm-none-eabi/lib/thumb/v7e-m/nofp/libg_nano.a(lib_a-vsnprintf.o)
 .debug_frame   0x000000000000426c       0x90 /usr/gcc-arm-none-eabi-10.3-2021.07/bin/../lib/gcc/arm-none-eabi/10.3.1/../../../../arm-none-eabi/lib/thumb/v7e-m/nofp/libg_nano.a(lib_a-nano-svfprintf.o)
 .debug_frame   0x00000000000042fc       0xac /usr/gcc-arm-none-eabi-10.3-2021.07/bin/../lib/gcc/arm-none-eabi/10.3.1/thumb/v7e-m/nofp/libgcc.a(_arm_addsubdf3.o)
 .debug_frame   0x00000000000043a8       0x50 /usr/gcc-arm-none-eabi-10.3-2021.07/bin/../lib/gcc/arm-none-eabi/10.3.1/thumb/v7e-m/nofp/libgcc.a(_arm_muldivdf3.o)
 .debug_frame   0x00000000000043f8       0xc4 /usr/gcc-arm-none-eabi-10.3-2021.07/bin/../lib/gcc/arm-none-eabi/10.3.1/thumb/v7e-m/nofp/libgcc.a(_arm_cmpdf2.o)
 .debug_frame   0x00000000000044bc       0x20 /usr/gcc-arm-none-eabi-10.3-2021.07/bin/../lib/gcc/arm-none-eabi/10.3.1/thumb/v7e-m/nofp/libgcc.a(_arm_unorddf2.o)
 .debug_frame   0x00000000000044dc       0x24 /usr/gcc-arm-none-eabi-10.3-2021.07/bin/../lib/gcc/arm-none-eabi/10.3.1/thumb/v7e-m/nofp/libgcc.a(_arm_fixdfsi.o)
 .debug_frame   0x0000000000004500       0x24 /usr/gcc-arm-none-eabi-10.3-2021.07/bin/../lib/gcc/arm-none-eabi/10.3.1/thumb/v7e-m/nofp/libgcc.a(_arm_fixunsdfsi.o)
 .debug_frame   0x0000000000004524       0x24 /usr/gcc-arm-none-eabi-10.3-2021.07/bin/../lib/gcc/arm-none-eabi/10.3.1/thumb/v7e-m/nofp/libgcc.a(_arm_truncdfsf2.o)
 .debug_frame   0x0000000000004548       0xc8 /usr/gcc-arm-none-eabi-10.3-2021.07/bin/../lib/gcc/arm-none-eabi/10.3.1/thumb/v7e-m/nofp/libgcc.a(_arm_cmpsf2.o)
 .debug_frame   0x0000000000004610       0x2c /usr/gcc-arm-none-eabi-10.3-2021.07/bin/../lib/gcc/arm-none-eabi/10.3.1/thumb/v7e-m/nofp/libgcc.a(_aeabi_uldivmod.o)
 .debug_frame   0x000000000000463c       0x38 /usr/gcc-arm-none-eabi-10.3-2021.07/bin/../lib/gcc/arm-none-eabi/10.3.1/thumb/v7e-m/nofp/libgcc.a(_fixdfdi.o)
 .debug_frame   0x0000000000004674       0x2c /usr/gcc-arm-none-eabi-10.3-2021.07/bin/../lib/gcc/arm-none-eabi/10.3.1/thumb/v7e-m/nofp/libgcc.a(_fixunsdfdi.o)
 .debug_frame   0x00000000000046a0       0x34 /usr/gcc-arm-none-eabi-10.3-2021.07/bin/../lib/gcc/arm-none-eabi/10.3.1/thumb/v7e-m/nofp/libgcc.a(_udivmoddi4.o)
 .debug_frame   0x00000000000046d4       0x20 /usr/gcc-arm-none-eabi-10.3-2021.07/bin/../lib/gcc/arm-none-eabi/10.3.1/../../../../arm-none-eabi/lib/thumb/v7e-m/nofp/libnosys.a(close.o)
 .debug_frame   0x00000000000046f4       0x20 /usr/gcc-arm-none-eabi-10.3-2021.07/bin/../lib/gcc/arm-none-eabi/10.3.1/../../../../arm-none-eabi/lib/thumb/v7e-m/nofp/libnosys.a(fstat.o)
 .debug_frame   0x0000000000004714       0x20 /usr/gcc-arm-none-eabi-10.3-2021.07/bin/../lib/gcc/arm-none-eabi/10.3.1/../../../../arm-none-eabi/lib/thumb/v7e-m/nofp/libnosys.a(getpid.o)
 .debug_frame   0x0000000000004734       0x20 /usr/gcc-arm-none-eabi-10.3-2021.07/bin/../lib/gcc/arm-none-eabi/10.3.1/../../../../arm-none-eabi/lib/thumb/v7e-m/nofp/libnosys.a(isatty.o)
 .debug_frame   0x0000000000004754       0x20 /usr/gcc-arm-none-eabi-10.3-2021.07/bin/../lib/gcc/arm-none-eabi/10.3.1/../../../../arm-none-eabi/lib/thumb/v7e-m/nofp/libnosys.a(kill.o)
 .debug_frame   0x0000000000004774       0x20 /usr/gcc-arm-none-eabi-10.3-2021.07/bin/../lib/gcc/arm-none-eabi/10.3.1/../../../../arm-none-eabi/lib/thumb/v7e-m/nofp/libnosys.a(lseek.o)
 .debug_frame   0x0000000000004794       0x20 /usr/gcc-arm-none-eabi-10.3-2021.07/bin/../lib/gcc/arm-none-eabi/10.3.1/../../../../arm-none-eabi/lib/thumb/v7e-m/nofp/libnosys.a(read.o)
 .debug_frame   0x00000000000047b4       0x20 /usr/gcc-arm-none-eabi-10.3-2021.07/bin/../lib/gcc/arm-none-eabi/10.3.1/../../../../arm-none-eabi/lib/thumb/v7e-m/nofp/libnosys.a(write.o)
 .debug_frame   0x00000000000047d4       0x20 /usr/gcc-arm-none-eabi-10.3-2021.07/bin/../lib/gcc/arm-none-eabi/10.3.1/../../../../arm-none-eabi/lib/thumb/v7e-m/nofp/libnosys.a(_exit.o)
 .debug_frame   0x00000000000047f4       0x4c /usr/gcc-arm-none-eabi-10.3-2021.07/bin/../lib/gcc/arm-none-eabi/10.3.1/thumb/v7e-m/nofp/libgcc.a(_arm_addsubsf3.o)
 .debug_frame   0x0000000000004840       0x38 /usr/gcc-arm-none-eabi-10.3-2021.07/bin/../lib/gcc/arm-none-eabi/10.3.1/thumb/v7e-m/nofp/libgcc.a(_arm_muldivsf3.o)
 .debug_frame   0x0000000000004878       0x24 /usr/gcc-arm-none-eabi-10.3-2021.07/bin/../lib/gcc/arm-none-eabi/10.3.1/thumb/v7e-m/nofp/libgcc.a(_arm_fixsfsi.o)
 .debug_frame   0x000000000000489c       0x24 /usr/gcc-arm-none-eabi-10.3-2021.07/bin/../lib/gcc/arm-none-eabi/10.3.1/thumb/v7e-m/nofp/libgcc.a(_arm_fixunssfsi.o)

.stab           0x0000000000000000       0xcc
 .stab          0x0000000000000000       0x24 /usr/gcc-arm-none-eabi-10.3-2021.07/bin/../lib/gcc/arm-none-eabi/10.3.1/../../../../arm-none-eabi/lib/thumb/v7e-m/nofp/libnosys.a(close.o)
 .stab          0x0000000000000024       0x18 /usr/gcc-arm-none-eabi-10.3-2021.07/bin/../lib/gcc/arm-none-eabi/10.3.1/../../../../arm-none-eabi/lib/thumb/v7e-m/nofp/libnosys.a(fstat.o)
                                         0x24 (size before relaxing)
 .stab          0x000000000000003c       0x18 /usr/gcc-arm-none-eabi-10.3-2021.07/bin/../lib/gcc/arm-none-eabi/10.3.1/../../../../arm-none-eabi/lib/thumb/v7e-m/nofp/libnosys.a(getpid.o)
                                         0x24 (size before relaxing)
 .stab          0x0000000000000054       0x18 /usr/gcc-arm-none-eabi-10.3-2021.07/bin/../lib/gcc/arm-none-eabi/10.3.1/../../../../arm-none-eabi/lib/thumb/v7e-m/nofp/libnosys.a(isatty.o)
                                         0x24 (size before relaxing)
 .stab          0x000000000000006c       0x18 /usr/gcc-arm-none-eabi-10.3-2021.07/bin/../lib/gcc/arm-none-eabi/10.3.1/../../../../arm-none-eabi/lib/thumb/v7e-m/nofp/libnosys.a(kill.o)
                                         0x24 (size before relaxing)
 .stab          0x0000000000000084       0x18 /usr/gcc-arm-none-eabi-10.3-2021.07/bin/../lib/gcc/arm-none-eabi/10.3.1/../../../../arm-none-eabi/lib/thumb/v7e-m/nofp/libnosys.a(lseek.o)
                                         0x24 (size before relaxing)
 .stab          0x000000000000009c       0x18 /usr/gcc-arm-none-eabi-10.3-2021.07/bin/../lib/gcc/arm-none-eabi/10.3.1/../../../../arm-none-eabi/lib/thumb/v7e-m/nofp/libnosys.a(read.o)
                                         0x24 (size before relaxing)
 .stab          0x00000000000000b4       0x18 /usr/gcc-arm-none-eabi-10.3-2021.07/bin/../lib/gcc/arm-none-eabi/10.3.1/../../../../arm-none-eabi/lib/thumb/v7e-m/nofp/libnosys.a(write.o)
                                         0x24 (size before relaxing)

.stabstr        0x0000000000000000      0x1b9
 .stabstr       0x0000000000000000      0x1b9 /usr/gcc-arm-none-eabi-10.3-2021.07/bin/../lib/gcc/arm-none-eabi/10.3.1/../../../../arm-none-eabi/lib/thumb/v7e-m/nofp/libnosys.a(close.o)
